(lp0
(dp1
I3200
F27960.31501909703
sI1600
F21675.59225943382
sI4100
F28044.32025260519
sI1800
F24477.870184239913
sI300
F23761.068434813667
sI2700
F35684.45857769153
sI3600
F32585.265721672742
sI3800
F28823.813050257777
sI1300
F34759.77863155777
sI2200
F29707.971160855155
sI900
F30129.94058960127
sI3100
F23770.948233940122
sI3304
F22546.63121047604
sI4000
F22398.674528980155
sI4400
F19589.929640868806
sI1700
F21513.460625543612
sI2600
F45706.42626406346
sI1500
F30660.758940756918
sI3500
F38318.74125241413
sI1200
F22359.140565115453
sI200
F25122.514381911504
sI2100
F26462.438989919116
sI3000
F25954.666623272664
sI3700
F30828.439644285707
sI700
F23459.692791775873
sI4800
F26891.296203792466
sI800
F31359.430699799294
sI2500
F34097.05892129055
sI3400
F45074.209134621175
sI1100
F31237.065384012643
sI4300
F27458.943883969598
sI2000
F27477.107710781926
sI1400
F49723.64552541946
sI2900
F21335.165718013966
sI600
F19960.58576930913
sI4700
F27106.800558114457
sI2400
F36523.32044301879
sI400
F31023.05715539673
sI100
F22831.23822365413
sI3301
F17899.243505503924
sI3302
F30518.033957392563
sI3303
F16607.833451567225
sI4200
F26568.168757159907
sI3900
F33741.738387642166
sI1900
F18370.586212815884
sI2800
F34822.75821931888
sI1000
F31045.860385198164
sI500
F34006.13000140719
sI3305
F26446.35902132662
sI4600
F28711.13127608543
sI4500
F20975.289994338476
sI2300
F21128.641043810767
sa(dp2
I3200
F28323.971108688023
sI1600
F21596.542668329937
sI4100
F27934.25039430257
sI1800
F24508.867043190174
sI300
F23755.728992758195
sI2700
F35662.138418264374
sI3600
F32384.691482734725
sI3800
F28667.2315432419
sI1300
F34654.555195496825
sI2200
F30076.96528645481
sI900
F30794.784244924555
sI3100
F24007.258073505403
sI3304
F22451.238697747733
sI4000
F22528.297593653744
sI4400
F19880.56113191708
sI1700
F21841.70337298437
sI2600
F45595.96978938426
sI1500
F29918.619601526254
sI3500
F38329.622352317834
sI1200
F22480.26866136103
sI200
F25101.009855159857
sI2100
F26486.093043721612
sI3000
F25938.40178757721
sI3700
F30514.77907958599
sI700
F23519.333393606314
sI4800
F26396.007476702824
sI800
F31144.558312146386
sI2500
F33300.700470164054
sI3400
F45369.23165526848
sI1100
F31481.9807092853
sI4300
F27519.944115041155
sI2000
F27434.561167737364
sI1400
F49799.492112817556
sI2900
F20760.504005629617
sI600
F19971.688269920207
sI4700
F26917.526328427775
sI2400
F36450.276908373664
sI400
F31457.322914640303
sI100
F22572.249676124728
sI3301
F17878.423096384737
sI3302
F30216.22715843174
sI3303
F16349.835785203164
sI4200
F26644.06352466123
sI3900
F33210.40879950881
sI1900
F18740.80761316764
sI2800
F34628.46990448053
sI1000
F31303.557675383763
sI500
F34258.428211033184
sI3305
F26531.73540696116
sI4600
F28803.89287890304
sI4500
F20910.29609030553
sI2300
F21004.849011730243
sa(dp3
I3200
F28088.556865492897
sI1600
F21587.388029777987
sI4100
F28046.157990003474
sI1800
F24629.071762643136
sI300
F23789.85490513729
sI2700
F35706.02535132315
sI3600
F32616.294419561338
sI3800
F28856.859781716033
sI1300
F34633.11869892606
sI2200
F29983.021554640898
sI900
F30190.24030941079
sI3100
F24152.381570016893
sI3304
F22532.93331601343
sI4000
F21956.355071778227
sI4400
F19493.282504523468
sI1700
F21366.912043385924
sI2600
F46271.22662172802
sI1500
F30346.139628223907
sI3500
F39697.768302628756
sI1200
F22425.85101716619
sI200
F25093.090364230397
sI2100
F26629.850507497293
sI3000
F25496.21980499412
sI3700
F30676.626363454554
sI700
F23507.303572122044
sI4800
F26313.05767417208
sI800
F31365.54408899595
sI2500
F33623.7278709516
sI3400
F45247.61857178259
sI1100
F31387.42432293888
sI4300
F27290.054010159976
sI2000
F27877.09482828271
sI1400
F49294.259687756625
sI2900
F21162.888035939093
sI600
F20034.032993004585
sI4700
F27005.92065204752
sI2400
F35616.60392032303
sI400
F31547.42146597676
sI100
F22935.68120985749
sI3301
F18441.009049157867
sI3302
F30637.35144493737
sI3303
F16419.873346455173
sI4200
F26678.59280731649
sI3900
F32799.412940469156
sI1900
F18453.61113882208
sI2800
F34819.99177542657
sI1000
F31688.102963727717
sI500
F34518.197368908055
sI3305
F26638.80557382449
sI4600
F28949.62175072515
sI4500
F21044.22660544204
sI2300
F20575.01237965291
sa(dp4
I3200
F27665.742136004967
sI1600
F21720.53159644077
sI4100
F28021.554626751033
sI1800
F24636.888628214077
sI300
F23410.540590365603
sI2700
F35678.83657736935
sI3600
F32353.313819225117
sI3800
F28941.861921043983
sI1300
F34742.502125244675
sI2200
F30309.051110714216
sI900
F30129.691543158107
sI3100
F23790.748772230192
sI3304
F22607.559047272087
sI4000
F22571.371377933243
sI4400
F19939.9262471712
sI1700
F21233.144496620673
sI2600
F53784.944449163224
sI1500
F30702.429879263924
sI3500
F38510.70069299814
sI1200
F22535.891133968027
sI200
F25159.57865604641
sI2100
F26352.3744029427
sI3000
F25912.33506717029
sI3700
F30033.451192784443
sI700
F23523.598896293013
sI4800
F26497.48003131816
sI800
F32140.128832847007
sI2500
F33554.215607695565
sI3400
F44405.00365055076
sI1100
F31080.961212396163
sI4300
F27663.551600568037
sI2000
F28378.743573264233
sI1400
F51208.14944675861
sI2900
F21198.519797651086
sI600
F20258.491520337764
sI4700
F27292.49890819173
sI2400
F35854.832936107094
sI400
F31570.36985495521
sI100
F22374.53108381897
sI3301
F17859.330889261746
sI3302
F30299.96098051757
sI3303
F16508.56597527922
sI4200
F26817.998503802704
sI3900
F33694.283609372855
sI1900
F18594.90064081068
sI2800
F35099.755802480875
sI1000
F31967.986455941005
sI500
F34176.65750217956
sI3305
F26602.515360039004
sI4600
F28535.261369896725
sI4500
F21038.03955151757
sI2300
F20887.101006915367
sa(dp5
I3200
F28268.814998745613
sI1600
F21320.809004916857
sI4100
F27849.05219062476
sI1800
F24377.311083901623
sI300
F23549.626692641963
sI2700
F35807.490286628
sI3600
F32549.263839504685
sI3800
F28638.257831324936
sI1300
F34635.55784689303
sI2200
F29960.4805216825
sI900
F30931.66038123662
sI3100
F23819.10204530499
sI3304
F22495.26324787583
sI4000
F22466.75823837321
sI4400
F19832.256423247298
sI1700
F21380.513078370437
sI2600
F45750.21489501185
sI1500
F30647.071318486895
sI3500
F38495.74418115794
sI1200
F22650.215023534885
sI200
F25098.38445148441
sI2100
F26427.349077801748
sI3000
F26084.87499418418
sI3700
F30522.663848733053
sI700
F23623.002194075256
sI4800
F26936.54647337702
sI800
F31735.025436017644
sI2500
F33614.55851862003
sI3400
F45595.302644435455
sI1100
F31073.027096078324
sI4300
F27401.232839078864
sI2000
F27888.1640681657
sI1400
F50574.690610089165
sI2900
F21272.12653647138
sI600
F20013.916821675775
sI4700
F26984.90563170515
sI2400
F36685.763194921434
sI400
F31292.770429165434
sI100
F22476.560101605468
sI3301
F17809.210596547015
sI3302
F31186.9669967374
sI3303
F16407.046538967155
sI4200
F26405.61680943499
sI3900
F33966.892891274416
sI1900
F18445.529850051575
sI2800
F35210.226661743945
sI1000
F31594.90840546141
sI500
F34088.17935366011
sI3305
F26683.710254865768
sI4600
F28585.922058816228
sI4500
F21152.629022650737
sI2300
F20696.200493858112
sa(dp6
I3200
F28232.395384182473
sI1600
F21617.915330004384
sI4100
F28104.796483680882
sI1800
F24360.8996449161
sI300
F23449.54347598405
sI2700
F35684.85464459803
sI3600
F32642.85251649048
sI3800
F28610.372502641392
sI1300
F34363.12285042717
sI2200
F29178.342704146464
sI900
F31053.85298407592
sI3100
F23685.049638842658
sI3304
F22526.56431748908
sI4000
F22478.072939106874
sI4400
F19913.562179011977
sI1700
F21304.706289085916
sI2600
F46164.89321622758
sI1500
F30631.029420259474
sI3500
F38102.218762379416
sI1200
F22647.625335808723
sI200
F25132.445519909026
sI2100
F26577.231648941117
sI3000
F25891.065573057498
sI3700
F30243.709978444276
sI700
F23465.351019342237
sI4800
F26897.910606158985
sI800
F31310.628064914155
sI2500
F33707.46750600685
sI3400
F45196.44858701757
sI1100
F31289.83062137844
sI4300
F27479.684063844546
sI2000
F27918.918441091384
sI1400
F49670.415483060555
sI2900
F21202.724305846164
sI600
F20037.71715860464
sI4700
F27119.222313683957
sI2400
F36279.33178797789
sI400
F31386.53102375176
sI100
F22536.408545428934
sI3301
F17734.4941643895
sI3302
F30759.140427413317
sI3303
F16274.435029089529
sI4200
F26069.950464917634
sI3900
F32839.88012716094
sI1900
F18439.986655112734
sI2800
F35835.54666578273
sI1000
F31365.069815303217
sI500
F34189.15455125631
sI3305
F26475.062082339704
sI4600
F29069.621344000636
sI4500
F21003.323488893482
sI2300
F20614.515474515214
sa(dp7
I3200
F28200.03869352801
sI1600
F21612.997902910203
sI4100
F28233.729088949363
sI1800
F24522.48895056865
sI300
F23768.637976147333
sI2700
F35973.378566392115
sI3600
F32537.11413891006
sI3800
F28817.88635475208
sI1300
F34664.229641373924
sI2200
F29808.196671042635
sI900
F30811.47958596535
sI3100
F23757.254827859426
sI3304
F22318.258441935104
sI4000
F22480.893616209625
sI4400
F19434.528267453235
sI1700
F21429.346395851306
sI2600
F46561.76928951796
sI1500
F30505.636850573832
sI3500
F38842.424527787494
sI1200
F22570.934809662685
sI200
F25108.100477998847
sI2100
F26468.16310531151
sI3000
F26134.912723291793
sI3700
F30661.252086660566
sI700
F23583.94029114447
sI4800
F26622.607382227627
sI800
F31301.515905509197
sI2500
F34044.64646214586
sI3400
F45217.841369565795
sI1100
F31148.45697943464
sI4300
F27250.768911140643
sI2000
F28081.1336560526
sI1400
F50761.711068205324
sI2900
F21319.026290640108
sI600
F19832.127169928495
sI4700
F27036.965811054382
sI2400
F36453.46950911247
sI400
F31414.15881792477
sI100
F22519.741129037935
sI3301
F17900.152869839854
sI3302
F30576.525889306762
sI3303
F16410.129820458005
sI4200
F26642.12867578001
sI3900
F33315.223359237265
sI1900
F18598.973106557776
sI2800
F35277.67594876441
sI1000
F31644.53171614612
sI500
F34036.73400195525
sI3305
F26891.971582808317
sI4600
F28676.76360771975
sI4500
F20979.43496613216
sI2300
F20765.976441065726
sa(dp8
I3200
F28016.996876928384
sI1600
F21643.256074285415
sI4100
F28048.936699784208
sI1800
F24549.54843688245
sI300
F23346.174167251796
sI2700
F35797.62761860126
sI3600
F32736.103125340454
sI3800
F29090.747214467956
sI1300
F34716.08079160719
sI2200
F29618.312631452915
sI900
F30299.33685792087
sI3100
F24024.36051408678
sI3304
F22479.477118100895
sI4000
F22647.710918673136
sI4400
F19719.55471648367
sI1700
F21428.60502555737
sI2600
F45722.37497872063
sI1500
F30572.673508865722
sI3500
F38542.56211884402
sI1200
F22687.97908852962
sI200
F25167.723295726337
sI2100
F26416.42693692755
sI3000
F26085.697894164136
sI3700
F30434.4966847598
sI700
F23848.442186642937
sI4800
F26522.260817787603
sI800
F30992.39553920082
sI2500
F33303.47692607214
sI3400
F45253.23190337056
sI1100
F31085.033284937534
sI4300
F27514.761985687903
sI2000
F28090.58904776858
sI1400
F50417.97962553766
sI2900
F20852.093345717876
sI600
F20161.785129146712
sI4700
F27061.020050359148
sI2400
F36498.61243191954
sI400
F31452.358364021875
sI100
F22540.840569823835
sI3301
F17875.752016474322
sI3302
F30653.474401366275
sI3303
F16400.870745392698
sI4200
F25640.929029666346
sI3900
F33549.21193178788
sI1900
F18413.64197869317
sI2800
F34979.292693216565
sI1000
F31374.025333617945
sI500
F34224.87914384788
sI3305
F26535.56895731267
sI4600
F28644.101366967334
sI4500
F21114.805023021192
sI2300
F20609.907017586138
sa(dp9
I3200
F28487.919342943693
sI1600
F21133.87394391232
sI4100
F27966.035327566995
sI1800
F24449.582126007932
sI300
F23438.66549670919
sI2700
F35540.78696548645
sI3600
F32881.84039155535
sI3800
F28851.37098129993
sI1300
F33972.13542644325
sI2200
F29812.196450947948
sI900
F30462.01598093024
sI3100
F23636.41385156517
sI3304
F22549.032840006916
sI4000
F22406.726674315072
sI4400
F19543.04907120354
sI1700
F21133.131665069803
sI2600
F45775.636031463975
sI1500
F30398.999407944368
sI3500
F38379.59080281102
sI1200
F22596.351639115008
sI200
F25200.08120617049
sI2100
F26469.618482298083
sI3000
F25996.121368112472
sI3700
F30733.20629247759
sI700
F23556.431477118796
sI4800
F26643.208431635303
sI800
F31527.428333491578
sI2500
F33315.21216490114
sI3400
F44540.84526060119
sI1100
F31824.578655074132
sI4300
F27425.007048466363
sI2000
F27343.022690536483
sI1400
F50075.77839743089
sI2900
F21403.282903451447
sI600
F20036.33192360927
sI4700
F26929.23307111536
sI2400
F36329.3910954743
sI400
F31675.740827443635
sI100
F22537.844009984692
sI3301
F18076.211010969793
sI3302
F30492.987364349072
sI3303
F16480.20419804846
sI4200
F26770.725925342744
sI3900
F33524.06185674343
sI1900
F18312.525099681716
sI2800
F34971.730264579455
sI1000
F31194.412388819306
sI500
F34143.68046531498
sI3305
F26683.334523604084
sI4600
F28839.350833251843
sI4500
F21117.7467027223
sI2300
F20629.346935378584
sa(dp10
I3200
F28658.21154939239
sI1600
F22076.921084339672
sI4100
F28010.558191804248
sI1800
F24412.253584673424
sI300
F23589.557366117653
sI2700
F35780.107784135726
sI3600
F33123.757175195795
sI3800
F28642.498029922917
sI1300
F34866.71817270881
sI2200
F30031.778868107554
sI900
F30518.85232313341
sI3100
F23846.521835219824
sI3304
F22555.24017293231
sI4000
F22698.291847145916
sI4400
F19603.464677976
sI1700
F21206.836625088454
sI2600
F45568.761714306835
sI1500
F30690.951800330553
sI3500
F38332.83805586965
sI1200
F22241.413853059188
sI200
F25125.290625937956
sI2100
F26304.27593422999
sI3000
F26037.45891927534
sI3700
F30817.883463268045
sI700
F23332.84603173179
sI4800
F26730.596172164067
sI800
F31508.26335788777
sI2500
F33438.87604548029
sI3400
F45490.8201124875
sI1100
F31176.630376644716
sI4300
F27464.10254671472
sI2000
F27892.37575787538
sI1400
F49905.616361518696
sI2900
F21193.13778063349
sI600
F19872.887325696436
sI4700
F27079.46895895271
sI2400
F35539.92890772504
sI400
F31200.952012049434
sI100
F22539.39834981053
sI3301
F17910.160279126354
sI3302
F30593.129353075845
sI3303
F16367.43803072132
sI4200
F26551.170496985233
sI3900
F33413.84578102504
sI1900
F18540.517894991877
sI2800
F35159.29357000069
sI1000
F31608.564681574597
sI500
F34076.041758975574
sI3305
F26643.92914374892
sI4600
F28596.836553117322
sI4500
F20998.02772387966
sI2300
F20887.184371896765
sa(dp11
I3200
F27681.294837858095
sI1600
F21800.681029986026
sI4100
F28051.16875043349
sI1800
F24544.504042663917
sI300
F23735.076310792585
sI2700
F35831.45251167383
sI3600
F32658.588667865897
sI3800
F29006.47759301842
sI1300
F34577.6666582622
sI2200
F29855.616675192035
sI900
F30413.745703565386
sI3100
F23970.86054661987
sI3304
F22876.040593745194
sI4000
F22386.707502623423
sI4400
F19607.532608217145
sI1700
F21325.589326898644
sI2600
F46674.01264967006
sI1500
F30767.404813285157
sI3500
F38157.74555523838
sI1200
F22742.706043920214
sI200
F25309.661746775393
sI2100
F26464.190878395613
sI3000
F25911.165040499123
sI3700
F30374.042894956438
sI700
F23535.915813327665
sI4800
F26533.74701394883
sI800
F31665.97426740414
sI2500
F33448.49659256476
sI3400
F44904.464049692026
sI1100
F32175.935608584157
sI4300
F27507.63611389474
sI2000
F27588.709841259104
sI1400
F49891.87435826221
sI2900
F21317.544125939286
sI600
F20099.438620639092
sI4700
F27270.81146696099
sI2400
F36441.4485044767
sI400
F31463.830103139757
sI100
F22489.99429957435
sI3301
F17808.677744551496
sI3302
F30242.753098336474
sI3303
F16444.827080942214
sI4200
F26388.963714851816
sI3900
F33632.786079720274
sI1900
F18459.16185119352
sI2800
F35061.49611486495
sI1000
F31205.406950097517
sI500
F34164.4049330891
sI3305
F26680.312710445116
sI4600
F28791.842864253656
sI4500
F21023.33897580242
sI2300
F20852.18561898238
sa(dp12
I3200
F28225.510369546817
sI1600
F21627.354983688296
sI4100
F27931.116915064773
sI1800
F24482.65061574145
sI300
F23406.874950349393
sI2700
F35650.158217862554
sI3600
F32632.40645666599
sI3800
F28876.629352096526
sI1300
F34653.32364993044
sI2200
F29783.255026344767
sI900
F30179.125452138876
sI3100
F23645.857002236513
sI3304
F22593.485453382415
sI4000
F22545.995882491436
sI4400
F20273.205293955973
sI1700
F21146.391553849142
sI2600
F51145.39717936395
sI1500
F30508.295021003985
sI3500
F38590.00655602011
sI1200
F22720.34361331287
sI200
F25177.76102940956
sI2100
F26374.78343069149
sI3000
F25921.574078811296
sI3700
F30790.179228892903
sI700
F24096.022492138556
sI4800
F26955.382706430737
sI800
F31346.488572380615
sI2500
F33085.22090591707
sI3400
F45035.28969349421
sI1100
F31971.03426506286
sI4300
F27312.918590135436
sI2000
F27380.882992214723
sI1400
F49063.167220456395
sI2900
F21282.71994709682
sI600
F20252.4025555241
sI4700
F27155.10327378187
sI2400
F36048.82584279522
sI400
F31636.19782685901
sI100
F22498.83062786568
sI3301
F18014.059244673317
sI3302
F30480.791385731292
sI3303
F16344.664513536905
sI4200
F26412.140122317844
sI3900
F33006.92139140818
sI1900
F18548.947438638002
sI2800
F35047.77794696671
sI1000
F32195.044826469188
sI500
F34338.39875652792
sI3305
F26361.69008931217
sI4600
F28572.295463986757
sI4500
F21146.672195319614
sI2300
F20757.16872823536
sa(dp13
I3200
F28168.550872296957
sI1600
F21571.54720536039
sI4100
F28089.63216287993
sI1800
F24657.959289795268
sI300
F23879.199580742716
sI2700
F35693.36089079131
sI3600
F32389.127839323723
sI3800
F28722.723622703077
sI1300
F34664.30410437581
sI2200
F30436.5921771734
sI900
F30332.92837745962
sI3100
F23831.856042737156
sI3304
F22407.79792882624
sI4000
F22347.320083131268
sI4400
F19480.90569230672
sI1700
F21176.05443789476
sI2600
F46030.03431574213
sI1500
F30378.75032493126
sI3500
F38923.522207136484
sI1200
F22659.19864638817
sI200
F25054.121279700605
sI2100
F26381.126397959706
sI3000
F25915.18509237405
sI3700
F30807.945316235964
sI700
F23369.869497536154
sI4800
F26517.817600157698
sI800
F31736.5811278851
sI2500
F33446.35385383272
sI3400
F44688.88201690666
sI1100
F31242.172716700687
sI4300
F27835.78076010866
sI2000
F27641.356224608553
sI1400
F50278.63672126657
sI2900
F21301.930362915668
sI600
F20277.76804464124
sI4700
F26851.24466493881
sI2400
F36474.55672598803
sI400
F31464.74363750228
sI100
F22355.81266457288
sI3301
F18043.529909715948
sI3302
F30848.610961708102
sI3303
F16316.091078149977
sI4200
F26838.9782593101
sI3900
F33454.84207440965
sI1900
F18713.88330005336
sI2800
F35375.32810747297
sI1000
F31240.414834056
sI500
F34093.85895953377
sI3305
F26612.43879296032
sI4600
F28780.58093990325
sI4500
F20996.62475878412
sI2300
F20625.596220915435
sa(dp14
I3200
F27601.138757137862
sI1600
F21236.82388143782
sI4100
F28060.097828703496
sI1800
F24628.269342259275
sI300
F23789.436273799693
sI2700
F35881.120259517615
sI3600
F33077.47083058008
sI3800
F28908.426425488058
sI1300
F34716.369286303496
sI2200
F29957.20280947694
sI900
F30165.804572826164
sI3100
F23859.214322565527
sI3304
F22310.498427704344
sI4000
F22428.341157433468
sI4400
F19765.17797219166
sI1700
F21341.96791081798
sI2600
F45487.17005408004
sI1500
F30470.19027036802
sI3500
F38717.55816191098
sI1200
F22654.259316231197
sI200
F25064.55938585385
sI2100
F26506.038196623475
sI3000
F26402.167459604785
sI3700
F30867.949771854564
sI700
F23581.48336419747
sI4800
F26859.065958058334
sI800
F31265.55243570219
sI2500
F34367.36528575512
sI3400
F45563.46045671401
sI1100
F31164.052196657856
sI4300
F27499.998494775315
sI2000
F27672.688203072445
sI1400
F49445.19988849445
sI2900
F20976.055058210106
sI600
F19989.46509823259
sI4700
F27239.458056265034
sI2400
F35994.05239472679
sI400
F30962.165273533352
sI100
F22566.54301491191
sI3301
F17984.85441542518
sI3302
F31067.148580389152
sI3303
F16582.18378169947
sI4200
F26583.94620938983
sI3900
F33620.5347847586
sI1900
F18576.291082478736
sI2800
F35449.43987430082
sI1000
F31100.59229572556
sI500
F34257.91011972469
sI3305
F26466.842148311258
sI4600
F28838.982189498885
sI4500
F20946.91880498295
sI2300
F20939.685071829856
sa(dp15
I3200
F28743.78881118126
sI1600
F21723.35406425597
sI4100
F27839.13109850142
sI1800
F24448.258664902994
sI300
F23192.556911962434
sI2700
F35659.429648089295
sI3600
F33146.549269797426
sI3800
F28700.340658221783
sI1300
F34786.78132655744
sI2200
F29891.60120184714
sI900
F29896.24317991886
sI3100
F23592.23079746271
sI3304
F22524.06562740333
sI4000
F22412.14657254127
sI4400
F19669.186449592726
sI1700
F21457.533541695255
sI2600
F51806.50720224821
sI1500
F30547.414441302582
sI3500
F39186.07877152475
sI1200
F22536.41663829628
sI200
F25108.756629795127
sI2100
F26507.49245677995
sI3000
F25929.45555397777
sI3700
F30431.604271089647
sI700
F23530.82909695448
sI4800
F26633.549277899336
sI800
F31670.876045633322
sI2500
F33036.7731252475
sI3400
F45290.67266239274
sI1100
F31182.46357632998
sI4300
F27799.552247284613
sI2000
F27778.15528058392
sI1400
F50951.82253267007
sI2900
F21538.0014922358
sI600
F19085.558813039956
sI4700
F26819.95215977611
sI2400
F35783.69857854204
sI400
F31452.73653982193
sI100
F22480.660603635257
sI3301
F17836.65876050475
sI3302
F30699.7417209978
sI3303
F16391.21622793206
sI4200
F26242.490418591296
sI3900
F33416.96866184576
sI1900
F18662.373192722276
sI2800
F35064.15619080682
sI1000
F31622.242644798713
sI500
F34354.923571158
sI3305
F26759.12325043174
sI4600
F28819.009163755873
sI4500
F21002.97083161797
sI2300
F20692.029852797998
sa(dp16
I3200
F28781.850795762955
sI1600
F21646.25046391533
sI4100
F27805.864597096934
sI1800
F24513.734365642555
sI300
F23826.80844079587
sI2700
F35992.759397239155
sI3600
F32853.18411075593
sI3800
F28854.143034839006
sI1300
F34722.73829623627
sI2200
F29962.13477360473
sI900
F30688.021846903273
sI3100
F23759.34910599542
sI3304
F22557.60397509006
sI4000
F22626.938711076076
sI4400
F19558.02222049941
sI1700
F21348.470129957972
sI2600
F45230.49799834154
sI1500
F30451.81336012642
sI3500
F38189.744696868
sI1200
F22688.409836642237
sI200
F25170.538103845523
sI2100
F26483.393274580107
sI3000
F25669.8469078101
sI3700
F30675.780019288155
sI700
F23527.05761275333
sI4800
F26596.141183797972
sI800
F31302.316514216556
sI2500
F33972.63231823047
sI3400
F45411.94620289271
sI1100
F31863.19980771879
sI4300
F27586.836990493357
sI2000
F27747.37770345707
sI1400
F50268.81689035959
sI2900
F20897.379048913488
sI600
F20375.79015761819
sI4700
F26798.722294096126
sI2400
F37095.76275798888
sI400
F31388.780356104264
sI100
F22530.03295979503
sI3301
F17472.613935310597
sI3302
F30574.065771936428
sI3303
F16377.862179069549
sI4200
F26641.509472395956
sI3900
F33835.50428726568
sI1900
F18573.59135033422
sI2800
F35583.56319283639
sI1000
F31521.712676126906
sI500
F34359.148424850035
sI3305
F26416.533225555144
sI4600
F28680.58735578297
sI4500
F20994.77292703564
sI2300
F20696.338696745697
sa(dp17
I3200
F28128.478041949096
sI1600
F21919.681950766295
sI4100
F28093.05752793871
sI1800
F24417.466997930467
sI300
F23842.71394632652
sI2700
F35489.10807618037
sI3600
F32850.13685115163
sI3800
F28744.88271802043
sI1300
F34432.58807269579
sI2200
F30038.424285837256
sI900
F30389.369279901137
sI3100
F23632.923364190294
sI3304
F22333.077817237463
sI4000
F22386.802259788754
sI4400
F19582.848240894127
sI1700
F21394.39158574201
sI2600
F51351.56950936501
sI1500
F30480.79879905571
sI3500
F38028.4738680314
sI1200
F22743.923750977752
sI200
F25148.49453781992
sI2100
F26519.468909736792
sI3000
F25986.46642409592
sI3700
F30546.21271423987
sI700
F23385.965912694784
sI4800
F26606.746650850193
sI800
F31847.318235093277
sI2500
F33548.94363638285
sI3400
F44603.85304753569
sI1100
F31759.6761444221
sI4300
F27544.242930000888
sI2000
F27989.101502282145
sI1400
F50491.774813358286
sI2900
F21284.79716729281
sI600
F19954.774028613934
sI4700
F27085.795452630817
sI2400
F36437.888159924485
sI400
F31225.88407739558
sI100
F22502.28281031267
sI3301
F17876.0442845073
sI3302
F30668.629553073733
sI3303
F16475.826020397457
sI4200
F26647.959739573063
sI3900
F33528.988346993654
sI1900
F18619.314305977052
sI2800
F35938.252975870564
sI1000
F31562.489681525913
sI500
F34232.47693878192
sI3305
F26528.98319201923
sI4600
F29205.869389555606
sI4500
F20965.955747243865
sI2300
F20817.085264658643
sa(dp18
I3200
F27742.01578641038
sI1600
F21673.72412259876
sI4100
F27885.699106076463
sI1800
F24487.152626562896
sI300
F23461.178290817195
sI2700
F35260.366792083696
sI3600
F32544.83257484189
sI3800
F29204.77040499252
sI1300
F34766.21769056741
sI2200
F29860.293810781975
sI900
F30348.434626229362
sI3100
F23684.64069229736
sI3304
F22481.248291124248
sI4000
F22387.853555876456
sI4400
F19478.057599642427
sI1700
F21202.425543052268
sI2600
F45608.6994159065
sI1500
F30534.66904539553
sI3500
F38710.58334976382
sI1200
F22526.829298478697
sI200
F25064.32099633903
sI2100
F26495.679702108206
sI3000
F26089.07647955522
sI3700
F30697.07086851778
sI700
F23525.05514625507
sI4800
F26591.997489025372
sI800
F31892.983600339983
sI2500
F33468.33853538658
sI3400
F45036.07278061677
sI1100
F32108.173532066954
sI4300
F27797.89158839958
sI2000
F27721.498192984305
sI1400
F49688.89196982162
sI2900
F21144.58218667577
sI600
F20286.43995579296
sI4700
F26869.938933224817
sI2400
F35600.740573443094
sI400
F31147.82654495422
sI100
F22573.254890242093
sI3301
F17816.336858712024
sI3302
F30446.7800461537
sI3303
F16546.115453279188
sI4200
F26615.785906458532
sI3900
F33584.4515423526
sI1900
F18506.91488954782
sI2800
F35357.87002224106
sI1000
F32268.57132453994
sI500
F34363.720426973945
sI3305
F26816.150288567293
sI4600
F28543.2006549391
sI4500
F21145.68444099603
sI2300
F20716.34271200466
sa(dp19
I3200
F28359.439652016594
sI1600
F21260.387795423056
sI4100
F28166.624636215172
sI1800
F24421.245263437944
sI300
F23671.43721264952
sI2700
F35359.15343888355
sI3600
F32686.90678029533
sI3800
F28832.11044953042
sI1300
F34635.422517831765
sI2200
F30124.146994114566
sI900
F30705.66800171388
sI3100
F23791.103756862725
sI3304
F22404.907202318045
sI4000
F22741.72314485899
sI4400
F19308.592422005575
sI1700
F21215.40748974763
sI2600
F46143.499981363966
sI1500
F31052.119009002723
sI3500
F38440.19298615613
sI1200
F22613.765834461483
sI200
F25063.366305652016
sI2100
F26488.79399397077
sI3000
F26142.044128676785
sI3700
F30638.945932459235
sI700
F23560.719383498537
sI4800
F26862.89386998759
sI800
F31859.25113012338
sI2500
F33247.268930832586
sI3400
F45325.92950768251
sI1100
F30871.880581795194
sI4300
F27465.462685883416
sI2000
F27475.925181364717
sI1400
F50628.110262589464
sI2900
F21406.28469386182
sI600
F20051.18180673331
sI4700
F27083.46986462112
sI2400
F36502.84770120579
sI400
F31378.27724635711
sI100
F22625.339083928375
sI3301
F17800.47802282333
sI3302
F30693.25712723816
sI3303
F16414.02734512583
sI4200
F26539.641672691305
sI3900
F33467.291408580895
sI1900
F18515.28179492658
sI2800
F34983.71010640941
sI1000
F31260.476235019163
sI500
F34100.35147932612
sI3305
F26469.860098958496
sI4600
F28783.488673086125
sI4500
F20980.679924852255
sI2300
F20412.865784919268
sa(dp20
I3200
F28367.75296880834
sI1600
F21588.038978689034
sI4100
F27955.797884180043
sI1800
F24583.887026894336
sI300
F23462.23710297894
sI2700
F35865.861685602766
sI3600
F32861.413983655584
sI3800
F28805.78842518938
sI1300
F34528.72587121188
sI2200
F29889.88053285345
sI900
F30245.705121425875
sI3100
F23618.384088184004
sI3304
F22532.754631798587
sI4000
F22373.02368814169
sI4400
F19922.87040546208
sI1700
F21332.555088371744
sI2600
F45466.07214115249
sI1500
F30473.415854233015
sI3500
F38807.60544911245
sI1200
F22508.150165976072
sI200
F25146.933944413504
sI2100
F26568.103325212353
sI3000
F26237.885888111043
sI3700
F30301.892937423818
sI700
F23442.771373001844
sI4800
F26875.66124389681
sI800
F31610.747029428534
sI2500
F33195.512025383636
sI3400
F44735.93204561337
sI1100
F31577.63693998504
sI4300
F27388.993432292096
sI2000
F27985.16643181265
sI1400
F49682.60937961166
sI2900
F21051.149748722535
sI600
F19979.113134189578
sI4700
F26740.638608931105
sI2400
F36479.35592304081
sI400
F31535.663246944616
sI100
F22179.358412244375
sI3301
F18304.65400871876
sI3302
F30373.341959518708
sI3303
F16379.57486961056
sI4200
F26888.944190638475
sI3900
F33589.98016080119
sI1900
F18662.660672174738
sI2800
F35666.650622605004
sI1000
F31513.868151286166
sI500
F34194.773497810485
sI3305
F26597.406493480703
sI4600
F28658.8976986088
sI4500
F20966.269631466097
sI2300
F20748.11427416518
sa(dp21
I3200
F28483.270896413727
sI1600
F21996.84976449159
sI4100
F28286.30351544517
sI1800
F24687.469248542347
sI300
F23443.792709930214
sI2700
F35193.18212031564
sI3600
F32771.18551638703
sI3800
F28753.836782072434
sI1300
F34755.75954300193
sI2200
F29472.600395325127
sI900
F30965.637865730252
sI3100
F24113.917935398626
sI3304
F22537.759948399827
sI4000
F22622.539505293047
sI4400
F19860.264146595146
sI1700
F21505.867274228618
sI2600
F45898.89339045969
sI1500
F29470.969190988246
sI3500
F39188.82077894766
sI1200
F22456.77817209969
sI200
F25258.71404503455
sI2100
F26436.003687236436
sI3000
F25970.626410623812
sI3700
F30803.779854075576
sI700
F23432.45836949458
sI4800
F26648.157649227094
sI800
F31621.330671928896
sI2500
F33598.588321019924
sI3400
F45201.62252453915
sI1100
F31243.584163751988
sI4300
F27581.497047913406
sI2000
F27631.34631760388
sI1400
F49810.02469647543
sI2900
F21179.359963229726
sI600
F20015.162178646646
sI4700
F26966.080163865605
sI2400
F36691.319208632165
sI400
F31597.637905949305
sI100
F22543.66109644245
sI3301
F18039.30583599245
sI3302
F31081.247527221047
sI3303
F16355.795088422134
sI4200
F26714.954931499087
sI3900
F33530.0565408232
sI1900
F18549.827098911854
sI2800
F35060.84457717409
sI1000
F31153.384041635207
sI500
F34246.35923146203
sI3305
F26364.575812066563
sI4600
F28717.411217027195
sI4500
F21019.66591433093
sI2300
F20700.66965760164
sa(dp22
I3200
F28054.512111154017
sI1600
F21611.17941271833
sI4100
F27910.28194232292
sI1800
F24500.988345334757
sI300
F23827.081753026847
sI2700
F35756.659633162795
sI3600
F32824.675215355346
sI3800
F28936.946598327715
sI1300
F34804.31719468794
sI2200
F29807.812884942727
sI900
F30004.092505309716
sI3100
F23718.676214820487
sI3304
F22178.42726750038
sI4000
F22733.699812755807
sI4400
F19375.574737749997
sI1700
F21396.906967209514
sI2600
F46235.645122891125
sI1500
F30728.36704769635
sI3500
F38225.604203596224
sI1200
F22690.871374722134
sI200
F25108.942552367804
sI2100
F26368.479159241237
sI3000
F26133.011875867152
sI3700
F30466.855862942994
sI700
F23425.928305810514
sI4800
F26400.145151198376
sI800
F31492.863477908948
sI2500
F33358.57406633243
sI3400
F45077.92375514102
sI1100
F31175.16483732583
sI4300
F27438.940361530695
sI2000
F27675.649424365172
sI1400
F50153.871121075266
sI2900
F21244.697609872153
sI600
F20062.19370314877
sI4700
F26151.125832059577
sI2400
F36443.90679425635
sI400
F31422.272720339137
sI100
F22527.807060418512
sI3301
F17874.749443219025
sI3302
F30669.484067959584
sI3303
F16428.883273319298
sI4200
F26629.75663362889
sI3900
F33706.865925964594
sI1900
F18338.529764950992
sI2800
F34842.16675019442
sI1000
F31196.259723470546
sI500
F34662.8260565166
sI3305
F26877.115677515547
sI4600
F28791.607462927845
sI4500
F20975.057358109763
sI2300
F20833.6298164803
sa(dp23
I3200
F28409.83369514207
sI1600
F21829.077191037475
sI4100
F27894.659375130548
sI1800
F24343.954446941985
sI300
F23247.40525090062
sI2700
F35748.36313642225
sI3600
F33120.92274535884
sI3800
F28951.315712307223
sI1300
F34611.533640473615
sI2200
F29925.192013820306
sI900
F30194.812328166925
sI3100
F23781.614508004757
sI3304
F22562.202283816965
sI4000
F22522.488528218033
sI4400
F19929.058996961223
sI1700
F21323.877094440446
sI2600
F45725.777289956975
sI1500
F30466.40703285257
sI3500
F38105.84205418626
sI1200
F22620.857119190576
sI200
F25099.098379443192
sI2100
F26438.526413979514
sI3000
F26155.95254754544
sI3700
F30718.518243477418
sI700
F23516.465182774078
sI4800
F26964.29004730231
sI800
F31477.642306271024
sI2500
F33480.543109620354
sI3400
F45206.42390969531
sI1100
F31617.037756773876
sI4300
F27907.001442941066
sI2000
F27646.62976439896
sI1400
F50418.47962710699
sI2900
F21686.580536798905
sI600
F19962.36563345538
sI4700
F27378.079891552796
sI2400
F36323.59014733886
sI400
F31565.50894176939
sI100
F22572.2435019826
sI3301
F17842.435626067665
sI3302
F30728.506463997062
sI3303
F16446.56704027697
sI4200
F26666.186386915244
sI3900
F33475.163488678765
sI1900
F18714.883167260203
sI2800
F35267.73129476591
sI1000
F31292.599874204134
sI500
F34095.03990969828
sI3305
F26904.22413612704
sI4600
F28705.993738966303
sI4500
F20985.98965220699
sI2300
F20691.57189241655
sa(dp24
I3200
F28471.86667583419
sI1600
F21595.441468481786
sI4100
F27987.000951485974
sI1800
F24373.689300255952
sI300
F23346.15151399499
sI2700
F35805.685685866905
sI3600
F32651.10828918236
sI3800
F28927.46591088441
sI1300
F34675.077276233074
sI2200
F29962.93821169966
sI900
F30414.336110135053
sI3100
F23569.913239715108
sI3304
F22914.393492421033
sI4000
F22483.840559361823
sI4400
F19815.144916602523
sI1700
F21425.85911149556
sI2600
F45915.25648940908
sI1500
F30562.257845672077
sI3500
F38429.81033039856
sI1200
F22288.30421072442
sI200
F25172.447136384744
sI2100
F26651.811174624636
sI3000
F26251.8824900655
sI3700
F30706.183819848047
sI700
F23518.442039133948
sI4800
F26488.03516223846
sI800
F31543.133846505665
sI2500
F33423.291495457685
sI3400
F43906.58959211315
sI1100
F30852.88899107218
sI4300
F27479.976895031603
sI2000
F27620.098898267053
sI1400
F49944.619302431216
sI2900
F21320.043601750578
sI600
F20019.822519568108
sI4700
F26774.141914357744
sI2400
F36896.733743873556
sI400
F31334.75749294317
sI100
F22562.186734504936
sI3301
F17930.37550089223
sI3302
F30599.82953560371
sI3303
F16250.351327639502
sI4200
F26388.15748979386
sI3900
F33363.559455315866
sI1900
F18619.012776396157
sI2800
F35200.53775853483
sI1000
F31508.57163610589
sI500
F34076.81707002174
sI3305
F26406.88369509032
sI4600
F28773.159240003028
sI4500
F20766.750835540264
sI2300
F20777.998289795283
sa(dp25
I3200
F28184.482799080815
sI1600
F21863.56762047246
sI4100
F28231.698636635574
sI1800
F24505.238077845916
sI300
F23443.15376453083
sI2700
F35789.62722551048
sI3600
F32183.30800931187
sI3800
F28904.01506737822
sI1300
F34613.88066652062
sI2200
F29937.923738182697
sI900
F30716.659182070638
sI3100
F24015.198004001675
sI3304
F22538.648506604848
sI4000
F22512.104998867755
sI4400
F20102.078593801732
sI1700
F21460.64716070726
sI2600
F45537.41998221493
sI1500
F30484.429784679087
sI3500
F38953.180208055506
sI1200
F22458.517350073656
sI200
F25042.854051644146
sI2100
F26392.37982729898
sI3000
F25475.787161588785
sI3700
F30818.37051457042
sI700
F23483.89168922399
sI4800
F26898.4169079861
sI800
F31615.981373772476
sI2500
F33930.80060483807
sI3400
F45274.72759628855
sI1100
F31106.14122460141
sI4300
F27915.17886076082
sI2000
F27707.95912372945
sI1400
F49899.30533509337
sI2900
F21384.238752672605
sI600
F19992.07194764376
sI4700
F26829.65204064566
sI2400
F36755.900199401294
sI400
F31885.686828352937
sI100
F22619.671300442882
sI3301
F17831.873788750163
sI3302
F30552.48737670528
sI3303
F16473.605879514856
sI4200
F26792.08766075612
sI3900
F33493.66780038942
sI1900
F18423.826774933023
sI2800
F35093.039766619855
sI1000
F31295.875650792048
sI500
F34229.3630970988
sI3305
F26595.3123348999
sI4600
F28736.904274557266
sI4500
F21160.602793208174
sI2300
F20877.661600034833
sa(dp26
I3200
F27503.675146548936
sI1600
F21450.289849040233
sI4100
F27919.805077493205
sI1800
F24392.178780144164
sI300
F23293.657911466245
sI2700
F35855.315291751365
sI3600
F32202.10513249081
sI3800
F28891.76856489976
sI1300
F35733.353560877746
sI2200
F29964.02980084122
sI900
F30162.067766244498
sI3100
F23489.215484633685
sI3304
F22380.912186547277
sI4000
F22501.23466123366
sI4400
F19434.03755603341
sI1700
F21358.135860436716
sI2600
F45611.75474694186
sI1500
F31257.921165820084
sI3500
F38207.08902587702
sI1200
F22691.09849932963
sI200
F25105.307406059463
sI2100
F26323.337178640835
sI3000
F26128.336137092192
sI3700
F30800.11278492858
sI700
F23587.438266883426
sI4800
F26879.710214724877
sI800
F31412.386855863057
sI2500
F33570.72151004058
sI3400
F44767.187728960365
sI1100
F32140.844324217327
sI4300
F27391.775889856646
sI2000
F27457.312620817804
sI1400
F50442.118901357215
sI2900
F21247.58222507008
sI600
F19955.916732985275
sI4700
F26882.273545460295
sI2400
F36396.35695939142
sI400
F31168.283901116778
sI100
F22387.633519543208
sI3301
F17975.387037875353
sI3302
F30149.636278744892
sI3303
F16448.66757957525
sI4200
F26724.176166610825
sI3900
F33575.07927603865
sI1900
F18472.602667043317
sI2800
F34520.21737935116
sI1000
F31713.97713501878
sI500
F34300.68102074571
sI3305
F26397.78888460614
sI4600
F28497.149205114463
sI4500
F21006.805605833793
sI2300
F20842.789719230925
sa(dp27
I3200
F28460.015402553032
sI1600
F21622.07839517362
sI4100
F28127.12576628266
sI1800
F24277.884985327448
sI300
F23429.597763189056
sI2700
F36067.1900089531
sI3600
F33424.10671302136
sI3800
F28855.70302989344
sI1300
F34657.675229719884
sI2200
F29783.3734416561
sI900
F30311.98048151685
sI3100
F24243.706462789738
sI3304
F22408.697610579908
sI4000
F22412.20488485276
sI4400
F19575.397141617454
sI1700
F21298.998125794973
sI2600
F45757.37104524894
sI1500
F30552.96104967698
sI3500
F38549.02557088726
sI1200
F22504.96151264343
sI200
F25259.957568702266
sI2100
F26512.2755728768
sI3000
F26030.12312357441
sI3700
F30746.128365090506
sI700
F23539.010476509244
sI4800
F26719.301914785796
sI800
F31510.839634403128
sI2500
F33942.005712227845
sI3400
F45402.455385305
sI1100
F31290.923556709247
sI4300
F27255.56168349966
sI2000
F27517.930174628233
sI1400
F51236.825935272456
sI2900
F20914.465484093944
sI600
F20163.85440575332
sI4700
F26819.858328982147
sI2400
F35925.06767373576
sI400
F31649.110932012853
sI100
F22422.874580876436
sI3301
F17992.791389316517
sI3302
F30656.33685750025
sI3303
F16455.177344384687
sI4200
F26627.98132134876
sI3900
F32933.401008417124
sI1900
F18755.05473297615
sI2800
F35114.801927489265
sI1000
F31082.51153418509
sI500
F34039.60455856032
sI3305
F26835.919877281398
sI4600
F28752.26293904845
sI4500
F20868.29192376681
sI2300
F20724.810304494506
sa(dp28
I3200
F28188.204882337766
sI1600
F21454.305448582887
sI4100
F27886.446193197797
sI1800
F24476.724504609043
sI300
F23779.694380052908
sI2700
F35950.81924486119
sI3600
F32837.78223146373
sI3800
F29267.356710578726
sI1300
F34554.86628588556
sI2200
F30002.374826474123
sI900
F30432.489210663654
sI3100
F23716.659254412676
sI3304
F22456.116926789335
sI4000
F23194.445034662614
sI4400
F20197.576413713537
sI1700
F20910.85281704579
sI2600
F52060.36269294669
sI1500
F30614.937475945164
sI3500
F38169.070026758476
sI1200
F22422.89884181317
sI200
F25054.68079228425
sI2100
F26756.53839787983
sI3000
F26000.691375946557
sI3700
F30480.19089836682
sI700
F23522.76184874643
sI4800
F26552.699685634594
sI800
F31372.05382702269
sI2500
F33581.5734121598
sI3400
F45134.66662868882
sI1100
F31998.434745953684
sI4300
F27527.95658700169
sI2000
F27703.636390181626
sI1400
F46710.08926075391
sI2900
F21052.33148447407
sI600
F19989.936577738717
sI4700
F27144.01888081676
sI2400
F37074.74613293912
sI400
F31444.86838078807
sI100
F22276.292381767882
sI3301
F18045.993337003314
sI3302
F30761.80747889766
sI3303
F16404.878469674288
sI4200
F26933.671032590806
sI3900
F33490.048388085124
sI1900
F18255.044168194378
sI2800
F35018.21074188647
sI1000
F31210.613149433182
sI500
F34285.289200298175
sI3305
F26456.552704706202
sI4600
F28654.118615408726
sI4500
F21113.750979649783
sI2300
F20861.544474577626
sa(dp29
I3200
F27789.752077777066
sI1600
F21202.803702477766
sI4100
F27894.622361264715
sI1800
F24426.580547275124
sI300
F23371.624352605315
sI2700
F35528.920265772285
sI3600
F32663.9924322506
sI3800
F29150.3535181981
sI1300
F34636.71802283741
sI2200
F30002.05930274579
sI900
F30419.305869914897
sI3100
F23954.614261373183
sI3304
F22502.02406522509
sI4000
F22459.251812928815
sI4400
F19355.07433378177
sI1700
F21327.14338164371
sI2600
F44807.9727510998
sI1500
F30582.077586220108
sI3500
F38405.8363850343
sI1200
F22570.245169800124
sI200
F25212.567849167084
sI2100
F26607.60632506206
sI3000
F25917.405173532065
sI3700
F29979.664106597305
sI700
F23516.233056657293
sI4800
F26908.47043160096
sI800
F31517.602438054986
sI2500
F33234.41583748812
sI3400
F45294.48019748069
sI1100
F30890.043523325206
sI4300
F27578.83569797839
sI2000
F27549.90956484532
sI1400
F50320.778652927234
sI2900
F21264.460421737826
sI600
F20151.856125597635
sI4700
F27061.39475020837
sI2400
F35777.428802298804
sI400
F31293.454722836515
sI100
F22582.133804724905
sI3301
F17856.43415755868
sI3302
F31002.49750233892
sI3303
F16490.664076575093
sI4200
F26760.159761221246
sI3900
F33325.00791804463
sI1900
F18620.063353658665
sI2800
F34652.19735772232
sI1000
F31392.88494742338
sI500
F34176.97664712421
sI3305
F26832.11701343216
sI4600
F28716.864094625395
sI4500
F21076.451502963613
sI2300
F20684.469199455914
sa(dp30
I3200
F27923.75870901992
sI1600
F21738.54707891441
sI4100
F27896.37363783191
sI1800
F24503.63893360468
sI300
F23684.515926090156
sI2700
F36427.145527181936
sI3600
F32660.437087859318
sI3800
F28853.962872975615
sI1300
F34593.747787353925
sI2200
F29679.387845789293
sI900
F30192.62725594871
sI3100
F23635.06501486102
sI3304
F22593.99156411286
sI4000
F22547.99316874244
sI4400
F19393.2510661151
sI1700
F21278.915918755145
sI2600
F51223.65796244472
sI1500
F30617.449741712673
sI3500
F38516.41287096184
sI1200
F22589.943161247273
sI200
F25288.18666077273
sI2100
F26471.829647366936
sI3000
F26084.265961433182
sI3700
F30153.33733183464
sI700
F23536.497451966185
sI4800
F26685.20421485054
sI800
F31720.227402063243
sI2500
F33669.29210341029
sI3400
F44896.03899383119
sI1100
F31476.364203696423
sI4300
F27589.35008266336
sI2000
F28154.00350582053
sI1400
F51228.1236719144
sI2900
F21193.21356510836
sI600
F20185.12443200676
sI4700
F27113.26844131192
sI2400
F35596.199819381116
sI400
F31441.771649433336
sI100
F22428.20381283389
sI3301
F17596.180633771295
sI3302
F30446.023851098922
sI3303
F16359.23832091295
sI4200
F26651.26138765824
sI3900
F33449.64639424625
sI1900
F18628.354624554668
sI2800
F35142.78685134227
sI1000
F31506.488946982725
sI500
F34245.50302323217
sI3305
F26700.451319031752
sI4600
F28852.941679489657
sI4500
F21000.696055625016
sI2300
F20563.618538236427
sa(dp31
I3200
F28177.020778278686
sI1600
F21689.760787300373
sI4100
F28029.176240128894
sI1800
F24493.845529084378
sI300
F23449.16061668756
sI2700
F35627.66961518323
sI3600
F33353.49773868504
sI3800
F28724.30489656075
sI1300
F34480.5763876387
sI2200
F30318.78592604359
sI900
F30240.192949423537
sI3100
F23683.22887034983
sI3304
F22596.65391805583
sI4000
F22480.282180336548
sI4400
F19558.056731819073
sI1700
F21307.114333215766
sI2600
F50983.55363784952
sI1500
F29665.231906447818
sI3500
F39000.77068589636
sI1200
F22696.890672006568
sI200
F25107.443107027808
sI2100
F26401.148944371675
sI3000
F25858.372795293002
sI3700
F30396.54019374666
sI700
F23383.980969179964
sI4800
F26619.725997260615
sI800
F31083.394040664956
sI2500
F33427.64461842426
sI3400
F44959.757629017025
sI1100
F32205.785667152046
sI4300
F27658.9576893728
sI2000
F27745.212159586783
sI1400
F49736.63025923626
sI2900
F21143.72207583986
sI600
F20102.01482864505
sI4700
F27098.543437245622
sI2400
F35899.69682225372
sI400
F31300.310985077573
sI100
F22585.97484283179
sI3301
F17963.82451779254
sI3302
F30892.645983155504
sI3303
F16425.369129872422
sI4200
F26067.29308413979
sI3900
F33804.5659772207
sI1900
F18550.10881719828
sI2800
F35272.96370115924
sI1000
F31560.837028363527
sI500
F34154.95364450529
sI3305
F26631.343694112373
sI4600
F28691.135645760194
sI4500
F21122.486877356285
sI2300
F20698.550142019118
sa(dp32
I3200
F28290.77455768414
sI1600
F21966.815333144175
sI4100
F27994.217461911143
sI1800
F24328.454713600448
sI300
F23795.261216355204
sI2700
F35659.23203212142
sI3600
F32630.578471262957
sI3800
F28608.756880666897
sI1300
F34618.57676656605
sI2200
F29882.00604569901
sI900
F30188.334747146437
sI3100
F23707.087953490038
sI3304
F22577.904190516
sI4000
F22412.626785094228
sI4400
F19552.061344809044
sI1700
F21371.264099934746
sI2600
F45944.24064784087
sI1500
F30406.361085359156
sI3500
F37688.83571957057
sI1200
F22551.562995780336
sI200
F25092.692104087633
sI2100
F26358.40630133404
sI3000
F26118.432412491748
sI3700
F30796.5899751799
sI700
F23630.164866667255
sI4800
F26748.705117844966
sI800
F31780.024599436627
sI2500
F33839.63406148971
sI3400
F44953.70685791298
sI1100
F31673.47685361742
sI4300
F27442.652450393478
sI2000
F27744.55250467226
sI1400
F49858.71534273681
sI2900
F21311.25415067538
sI600
F20331.238440015022
sI4700
F26974.2933535187
sI2400
F36462.02060937636
sI400
F31017.020032863013
sI100
F22526.47722371269
sI3301
F17984.583208237036
sI3302
F30683.42879142172
sI3303
F16363.318169583828
sI4200
F26610.67378141012
sI3900
F33657.27141312879
sI1900
F18452.290781693617
sI2800
F35195.75531492799
sI1000
F32076.982435308633
sI500
F34189.43423619519
sI3305
F27169.247372750317
sI4600
F28636.175709470226
sI4500
F21003.45839234626
sI2300
F20807.784419267602
sa(dp33
I3200
F28358.599315734828
sI1600
F21420.410715517297
sI4100
F27913.431091557064
sI1800
F24420.16787667714
sI300
F23723.268821492435
sI2700
F35672.49116982339
sI3600
F32168.62748481761
sI3800
F28581.85074746426
sI1300
F34269.01442545158
sI2200
F29967.326984088904
sI900
F30089.405742098497
sI3100
F23716.857220018945
sI3304
F22412.563168803845
sI4000
F22337.619658345888
sI4400
F19638.24821666781
sI1700
F21063.192479901103
sI2600
F46450.67208581466
sI1500
F30315.348148574645
sI3500
F38187.30954490494
sI1200
F22746.11310588011
sI200
F25098.2417359476
sI2100
F26629.441442581207
sI3000
F25890.15502643312
sI3700
F30586.64105936595
sI700
F23452.823586729508
sI4800
F26834.638467205517
sI800
F31897.425926431864
sI2500
F32964.6283734264
sI3400
F44985.56610674041
sI1100
F31616.457044855313
sI4300
F27902.491107608672
sI2000
F27670.177611342995
sI1400
F50010.0971467022
sI2900
F21116.431413939725
sI600
F20390.110162017256
sI4700
F27141.653083791745
sI2400
F36416.993561732714
sI400
F31530.57418175652
sI100
F22471.921821468823
sI3301
F17439.277183004597
sI3302
F30481.092144930535
sI3303
F16579.950544501953
sI4200
F26891.409810908954
sI3900
F33258.496909837304
sI1900
F18440.310275664455
sI2800
F35158.57018447607
sI1000
F31295.928636643974
sI500
F34271.685304645085
sI3305
F26423.0528433303
sI4600
F28769.381943429442
sI4500
F21090.076262692146
sI2300
F20810.298759625133
sa(dp34
I3200
F27593.612645212477
sI1600
F21624.201230017137
sI4100
F28076.256664032666
sI1800
F24618.425881246516
sI300
F23904.063157066626
sI2700
F35887.132218058534
sI3600
F33050.635718278914
sI3800
F28998.346159852168
sI1300
F34666.41275159016
sI2200
F29993.84211669618
sI900
F30382.53412631494
sI3100
F23820.53941850256
sI3304
F22632.907121084387
sI4000
F22189.00616676497
sI4400
F19484.220844080646
sI1700
F21302.311304899267
sI2600
F51913.459809172266
sI1500
F30471.281316036246
sI3500
F38054.402497982235
sI1200
F22549.41963853316
sI200
F25101.3698271158
sI2100
F26545.36237778598
sI3000
F26058.154997689464
sI3700
F31481.41594434705
sI700
F23493.97219109242
sI4800
F26651.06299325337
sI800
F31804.346993198404
sI2500
F33377.26871889233
sI3400
F45356.957192430484
sI1100
F31035.855665774674
sI4300
F27355.44541716009
sI2000
F27391.61676531888
sI1400
F49195.416561914826
sI2900
F21231.755136802698
sI600
F20008.90407998214
sI4700
F26841.981978099662
sI2400
F36761.36645072593
sI400
F31437.9090438595
sI100
F22511.477407327333
sI3301
F17851.851072093505
sI3302
F30878.639344329276
sI3303
F16537.61526307226
sI4200
F26627.10410567073
sI3900
F33302.22696886061
sI1900
F18558.931874487087
sI2800
F35110.13442897654
sI1000
F31505.956444684758
sI500
F34224.74773146579
sI3305
F26844.640751558738
sI4600
F28692.044165126885
sI4500
F21140.092492771048
sI2300
F20713.08449254906
sa(dp35
I3200
F28300.551741194933
sI1600
F21537.383971947467
sI4100
F27965.218375236636
sI1800
F24746.7384079514
sI300
F23434.43610126059
sI2700
F35738.4663494259
sI3600
F32869.77012038404
sI3800
F28730.706177279106
sI1300
F34667.91417327909
sI2200
F30286.936343762267
sI900
F30175.482937138837
sI3100
F23382.095029440967
sI3304
F22442.267658534493
sI4000
F22443.874891562387
sI4400
F19852.751396565058
sI1700
F21475.532598299626
sI2600
F46099.917238607406
sI1500
F30668.3905987058
sI3500
F39479.38376003267
sI1200
F22470.935792750755
sI200
F25103.20613608506
sI2100
F26420.6587365136
sI3000
F25950.505940911942
sI3700
F30643.422733394735
sI700
F24222.73303545115
sI4800
F26828.869423657885
sI800
F31777.691979583327
sI2500
F33172.7674627379
sI3400
F45001.39381693718
sI1100
F31781.621389643027
sI4300
F27578.732438380262
sI2000
F27706.151500414217
sI1400
F50833.95504238265
sI2900
F21222.59532652812
sI600
F19994.859399648136
sI4700
F27067.151190564167
sI2400
F37722.93798841223
sI400
F31429.54878235027
sI100
F22668.439495031886
sI3301
F17958.565092440374
sI3302
F30645.412903945766
sI3303
F16453.38986509779
sI4200
F26684.866165696618
sI3900
F33352.09000772894
sI1900
F18643.112579288223
sI2800
F34996.420116154106
sI1000
F31940.310340469332
sI500
F34234.120666865536
sI3305
F26823.56826440541
sI4600
F28707.487731811274
sI4500
F20912.69913310238
sI2300
F20398.28653239025
sa(dp36
I3200
F27146.57408767673
sI1600
F21837.87454988023
sI4100
F28034.537242146525
sI1800
F24452.94743049539
sI300
F23531.739440640966
sI2700
F35715.02634096821
sI3600
F32611.30627959934
sI3800
F28957.988621580414
sI1300
F34455.94188873947
sI2200
F30012.005252859606
sI900
F30142.096451108355
sI3100
F23731.922765285326
sI3304
F22448.816902564027
sI4000
F22338.650896075138
sI4400
F19817.815683096498
sI1700
F21335.345406761247
sI2600
F45258.77289782046
sI1500
F30469.379406575586
sI3500
F38571.890179871785
sI1200
F22510.461351412916
sI200
F25216.140409735122
sI2100
F26509.147122279686
sI3000
F25863.273003943985
sI3700
F30527.38898418084
sI700
F23206.03713965061
sI4800
F26822.590914503635
sI800
F30875.9261388029
sI2500
F33370.35517517324
sI3400
F45111.24374989112
sI1100
F31343.248000787728
sI4300
F27288.032503238104
sI2000
F27472.01332386746
sI1400
F50971.54539514984
sI2900
F21347.34243788164
sI600
F20229.927287391318
sI4700
F26789.240984082346
sI2400
F36497.929526562904
sI400
F31702.800736742392
sI100
F22573.25680750477
sI3301
F17886.075860321824
sI3302
F30479.447911512394
sI3303
F17143.477901352304
sI4200
F26119.98180686158
sI3900
F33470.401178745145
sI1900
F18448.540299790868
sI2800
F35240.48146556585
sI1000
F31667.047036996224
sI500
F34278.08374609403
sI3305
F26461.205714753538
sI4600
F28707.560130120237
sI4500
F21022.407846323225
sI2300
F20821.901672522465
sa(dp37
I3200
F28058.488303805414
sI1600
F21530.364789350377
sI4100
F28039.88841083454
sI1800
F24443.25442867198
sI300
F23926.819102953832
sI2700
F35652.329912056346
sI3600
F32482.792038154905
sI3800
F28503.819327091893
sI1300
F34367.286374475625
sI2200
F29902.699988441607
sI900
F30160.382343680674
sI3100
F23702.66460370204
sI3304
F22386.84617667465
sI4000
F22471.41594575807
sI4400
F19733.8043232436
sI1700
F21111.728817685005
sI2600
F45323.47916985854
sI1500
F30425.6536609115
sI3500
F38858.4580341239
sI1200
F22691.955866746506
sI200
F25050.29001718605
sI2100
F26383.946386164287
sI3000
F26033.68232103742
sI3700
F30271.43775236036
sI700
F23558.415240836963
sI4800
F26519.129212299755
sI800
F30482.431127777305
sI2500
F32834.38245783731
sI3400
F45096.05390159974
sI1100
F31175.80030728687
sI4300
F27674.669728611905
sI2000
F27426.21248721639
sI1400
F49542.02059382368
sI2900
F21110.332313671963
sI600
F20416.421432965268
sI4700
F27053.940889325502
sI2400
F36156.500608204595
sI400
F31024.92817108614
sI100
F22530.40772301314
sI3301
F17876.136983899713
sI3302
F30498.74782349326
sI3303
F16397.88504331564
sI4200
F26555.07501838462
sI3900
F33391.15382732263
sI1900
F18499.623249704302
sI2800
F34548.80057336153
sI1000
F31496.817960782868
sI500
F34190.168213357865
sI3305
F26812.405903984953
sI4600
F28759.958089923966
sI4500
F21169.581121433144
sI2300
F20614.137255978098
sa(dp38
I3200
F28577.39269540435
sI1600
F22018.941612229988
sI4100
F27955.9278056861
sI1800
F24355.383921499193
sI300
F23742.88797080235
sI2700
F35875.57248971866
sI3600
F31986.90015910958
sI3800
F28596.830003006227
sI1300
F34701.728801209145
sI2200
F29903.661015956204
sI900
F30129.33363745544
sI3100
F24019.627473847748
sI3304
F22505.582989102957
sI4000
F22468.443221482772
sI4400
F19952.99024613418
sI1700
F21170.50359746932
sI2600
F50477.03911155815
sI1500
F30658.753913077584
sI3500
F38355.77992045619
sI1200
F22601.835196650158
sI200
F25202.031275305908
sI2100
F26522.119199937508
sI3000
F26036.408241204157
sI3700
F30725.11502421238
sI700
F23450.695916761655
sI4800
F26904.626995016137
sI800
F31063.228060614754
sI2500
F32338.836526793744
sI3400
F45205.52997164209
sI1100
F31589.636317591503
sI4300
F27588.27942690234
sI2000
F27647.65852188369
sI1400
F50488.46812344207
sI2900
F21233.71082998328
sI600
F20027.336699868505
sI4700
F27104.847354760703
sI2400
F35901.16564731408
sI400
F31225.202507583308
sI100
F22550.46267633098
sI3301
F17994.503767558443
sI3302
F30566.987992506016
sI3303
F16378.909477559402
sI4200
F27070.55471997115
sI3900
F33597.39665400796
sI1900
F18655.15323370092
sI2800
F35470.67755101864
sI1000
F31829.93334757716
sI500
F34261.373415058646
sI3305
F26557.983040428975
sI4600
F28638.445741000993
sI4500
F20980.095242139898
sI2300
F20967.455587663397
sa(dp39
I3200
F27938.926005293037
sI1600
F21367.036132335696
sI4100
F28162.038197186263
sI1800
F24436.780239297943
sI300
F23454.295604472336
sI2700
F35688.22382218927
sI3600
F32969.313398553015
sI3800
F28619.65459935177
sI1300
F35164.98973003682
sI2200
F29957.89546696517
sI900
F30185.07624756296
sI3100
F23644.038547335767
sI3304
F22361.501245978478
sI4000
F22293.71864247011
sI4400
F19873.663720641256
sI1700
F21346.47382225098
sI2600
F45727.209820144744
sI1500
F30501.952815077188
sI3500
F38912.811566258715
sI1200
F22582.398539378493
sI200
F25117.457607958135
sI2100
F26356.44224922543
sI3000
F26639.318244598715
sI3700
F30419.815869231363
sI700
F23782.656791628193
sI4800
F26754.271180309745
sI800
F31466.07803935831
sI2500
F33502.36048332323
sI3400
F44910.3720969406
sI1100
F31205.658464729335
sI4300
F27230.468665435612
sI2000
F27442.185537941998
sI1400
F50567.20450676284
sI2900
F21301.523738244832
sI600
F20028.8935349616
sI4700
F27042.707212251764
sI2400
F36587.841071318886
sI400
F31971.087017506085
sI100
F22584.472007567052
sI3301
F18002.418980160888
sI3302
F30758.315534179856
sI3303
F16677.326703455827
sI4200
F26671.408683830625
sI3900
F33581.499212426694
sI1900
F18546.425320841223
sI2800
F35337.49682340222
sI1000
F31426.607721461176
sI500
F34504.89481014362
sI3305
F26684.228678552543
sI4600
F28829.062222422122
sI4500
F21026.555220812435
sI2300
F20711.318696537568
sa(dp40
I3200
F27927.436222959004
sI1600
F21134.665808738635
sI4100
F27462.281542683686
sI1800
F24455.25336863897
sI300
F23535.848187634616
sI2700
F35854.636978654235
sI3600
F32533.269324205557
sI3800
F28807.36153173408
sI1300
F34773.71320669064
sI2200
F29951.932942740244
sI900
F30196.36555869615
sI3100
F23752.022419494806
sI3304
F22445.79757949552
sI4000
F22463.73120772489
sI4400
F19907.445350181533
sI1700
F21279.81656868023
sI2600
F50953.403602212566
sI1500
F30294.6005535057
sI3500
F38279.78629268124
sI1200
F22763.5835002501
sI200
F25273.763800119923
sI2100
F26302.074557914588
sI3000
F25934.698815678064
sI3700
F30551.648956743335
sI700
F23544.07937434695
sI4800
F26676.879030496453
sI800
F31621.27289825706
sI2500
F34058.49603518624
sI3400
F45035.14946771525
sI1100
F31439.303973593993
sI4300
F27353.444593262793
sI2000
F28126.059711417864
sI1400
F50036.07479388847
sI2900
F21361.627828083572
sI600
F20160.8396611327
sI4700
F27063.800031886378
sI2400
F36455.97777690739
sI400
F31167.789667672685
sI100
F22598.469950964834
sI3301
F18036.212735512054
sI3302
F30745.161650633898
sI3303
F16362.53883206838
sI4200
F27090.80588046193
sI3900
F33708.27174655256
sI1900
F18591.481104995055
sI2800
F34569.42895464899
sI1000
F31068.345031727826
sI500
F34282.616203808764
sI3305
F27080.1357303794
sI4600
F28625.203916038816
sI4500
F21039.77070230053
sI2300
F20719.157986191738
sa(dp41
I3200
F29055.44595176161
sI1600
F21556.01745513773
sI4100
F27899.48090648866
sI1800
F24424.291104571657
sI300
F23756.446564714974
sI2700
F35896.6956332465
sI3600
F33015.62675136
sI3800
F28668.10577481812
sI1300
F34744.112893466656
sI2200
F30079.128745351944
sI900
F30183.143771000523
sI3100
F23619.546995628833
sI3304
F22399.954664024848
sI4000
F22373.266159239265
sI4400
F20139.543161237096
sI1700
F21360.81874166515
sI2600
F45321.21739875292
sI1500
F30460.706286857006
sI3500
F38360.8452796608
sI1200
F22546.99462122618
sI200
F25101.55438469661
sI2100
F26586.1639775355
sI3000
F25680.25590835328
sI3700
F30772.83532797734
sI700
F23544.769754351786
sI4800
F26763.61340174199
sI800
F32445.554185394267
sI2500
F33724.18849370702
sI3400
F45199.6862503052
sI1100
F32204.499529239623
sI4300
F27359.101255765454
sI2000
F27951.839605917
sI1400
F51635.072520764916
sI2900
F21149.119567676793
sI600
F20023.79954934597
sI4700
F26633.726180693902
sI2400
F36525.27168330656
sI400
F31194.37931178111
sI100
F22601.987438527405
sI3301
F17613.310414319363
sI3302
F30497.59310417604
sI3303
F16562.011033926825
sI4200
F26706.951652875734
sI3900
F32970.933200903186
sI1900
F18560.032878157846
sI2800
F35046.88096961556
sI1000
F31905.664842023896
sI500
F34038.40944568343
sI3305
F26448.9382942643
sI4600
F28823.98271227028
sI4500
F21035.798902895636
sI2300
F20602.692864367375
sa(dp42
I3200
F28475.005698347282
sI1600
F21576.318321310384
sI4100
F27964.92090143009
sI1800
F24598.581720789836
sI300
F23232.643938105222
sI2700
F35898.68987520138
sI3600
F32927.5095955357
sI3800
F28788.648585074425
sI1300
F35078.30667336064
sI2200
F29704.921936046925
sI900
F30799.412522598774
sI3100
F24414.076472594745
sI3304
F22377.72237636317
sI4000
F22397.21574251218
sI4400
F19869.62545243252
sI1700
F21285.417475695423
sI2600
F54156.83905574596
sI1500
F30646.336608058627
sI3500
F38334.46404722864
sI1200
F22560.231649364265
sI200
F25130.719687652305
sI2100
F26585.89537579858
sI3000
F25958.37044436246
sI3700
F30591.264958703654
sI700
F24017.430063145348
sI4800
F26930.84599341791
sI800
F31811.08225275203
sI2500
F33479.64921038646
sI3400
F45404.51016148484
sI1100
F31229.947098918285
sI4300
F27470.942765685835
sI2000
F27659.51243951908
sI1400
F50212.94340940955
sI2900
F21221.395290567456
sI600
F20019.455697877183
sI4700
F26892.7929614903
sI2400
F36116.09258059001
sI400
F31287.32425483928
sI100
F22689.815010396098
sI3301
F18312.117601349906
sI3302
F30603.47849820293
sI3303
F16355.879605250988
sI4200
F26680.339459136398
sI3900
F33304.832288849415
sI1900
F18441.25531302913
sI2800
F34955.50791553721
sI1000
F31144.180979119785
sI500
F34167.993057269094
sI3305
F27069.91562425742
sI4600
F28672.247272508605
sI4500
F20975.226107919207
sI2300
F20725.46676063888
sa(dp43
I3200
F28173.55544092173
sI1600
F21550.642619739705
sI4100
F27763.540010656518
sI1800
F24345.365354533635
sI300
F23739.02927732081
sI2700
F35719.844535178985
sI3600
F33179.4839617286
sI3800
F28931.276755132938
sI1300
F34218.965937054454
sI2200
F29934.02128449326
sI900
F30602.47928557249
sI3100
F23689.977643172166
sI3304
F22228.79101375016
sI4000
F22866.00089577254
sI4400
F19793.41393043084
sI1700
F21275.001474276633
sI2600
F51754.9112640675
sI1500
F30664.578145547737
sI3500
F38343.500198896894
sI1200
F22685.796067806637
sI200
F25081.341777888163
sI2100
F26592.29710998978
sI3000
F26048.66220493395
sI3700
F30431.688920010558
sI700
F23481.549359292552
sI4800
F26464.50776137021
sI800
F31435.62460098811
sI2500
F34041.4229764107
sI3400
F45363.83275347697
sI1100
F32272.239130916147
sI4300
F27818.733571571982
sI2000
F27655.638584458604
sI1400
F50834.89483161527
sI2900
F21193.37229634507
sI600
F19968.08320199198
sI4700
F27207.557772334058
sI2400
F36803.57003002452
sI400
F31528.226541246087
sI100
F22462.922556263104
sI3301
F18146.42783790453
sI3302
F30638.910122417565
sI3303
F16477.53225298604
sI4200
F26389.13782505292
sI3900
F33319.03929413899
sI1900
F18322.559168416752
sI2800
F34727.49712378414
sI1000
F31160.570794182222
sI500
F34496.69588588804
sI3305
F26624.82301989792
sI4600
F28398.35969110473
sI4500
F20996.94772288293
sI2300
F20715.99896058286
sa(dp44
I3200
F28422.74293654822
sI1600
F21821.33961867226
sI4100
F27740.79787726023
sI1800
F24465.083008614598
sI300
F23404.1271554466
sI2700
F35825.95494457215
sI3600
F32841.17399708562
sI3800
F28882.120921801787
sI1300
F34807.65960365137
sI2200
F30014.353399701406
sI900
F30120.705605004336
sI3100
F23787.317822057397
sI3304
F22398.545511479275
sI4000
F22466.659166059726
sI4400
F19918.165027951898
sI1700
F21284.338180251372
sI2600
F45842.77478034738
sI1500
F30977.563423046813
sI3500
F39147.144622716296
sI1200
F22433.98169114968
sI200
F25144.23053871805
sI2100
F26376.85942462916
sI3000
F25685.170531628246
sI3700
F30519.242858172962
sI700
F23496.398604716607
sI4800
F26652.489206918133
sI800
F31342.389051903956
sI2500
F33105.537438117324
sI3400
F44654.06755491433
sI1100
F31254.070161043932
sI4300
F27244.810770441614
sI2000
F27816.052554481135
sI1400
F50691.426327099565
sI2900
F21213.022977413653
sI600
F20104.916439394532
sI4700
F27339.131307442818
sI2400
F36489.77612884146
sI400
F31723.95633392746
sI100
F22783.188616435695
sI3301
F17928.797295756256
sI3302
F30688.27302367094
sI3303
F16481.19379528538
sI4200
F26357.264055739673
sI3900
F34015.33347073733
sI1900
F18360.636718837006
sI2800
F34755.33454008113
sI1000
F31635.467655058386
sI500
F34238.715718533975
sI3305
F26525.97659605773
sI4600
F29889.992361510776
sI4500
F20957.064017813376
sI2300
F20616.839747162787
sa(dp45
I3200
F28114.68525929446
sI1600
F21665.320824438924
sI4100
F28008.1623840344
sI1800
F24466.369485793057
sI300
F23415.181759025974
sI2700
F35893.60353449939
sI3600
F32689.55608335357
sI3800
F28863.76186955478
sI1300
F34229.42089211471
sI2200
F30331.79946510839
sI900
F30224.54433492968
sI3100
F23844.085950619407
sI3304
F22662.968650752973
sI4000
F22532.7181702582
sI4400
F19880.288269733024
sI1700
F22005.357643892246
sI2600
F45058.22807590524
sI1500
F30478.45477109202
sI3500
F40412.04917843581
sI1200
F22638.892694778988
sI200
F25128.6955348917
sI2100
F26384.708973899866
sI3000
F26117.992491549845
sI3700
F30770.425979375228
sI700
F23545.966511674338
sI4800
F26951.97794735866
sI800
F31083.741975907113
sI2500
F33393.621112215886
sI3400
F45234.9192755159
sI1100
F31770.910530374804
sI4300
F27748.215058871527
sI2000
F27706.413934720294
sI1400
F48762.707725719316
sI2900
F21139.91335845334
sI600
F19882.429809533154
sI4700
F26763.358981289286
sI2400
F36021.667193410096
sI400
F31627.546108653954
sI100
F22651.756063120985
sI3301
F18055.928705703027
sI3302
F30944.253363299624
sI3303
F16388.49247657218
sI4200
F26336.969783786983
sI3900
F32942.79405127392
sI1900
F18607.519977692555
sI2800
F35186.44015664551
sI1000
F31496.051966395935
sI500
F34215.20047582856
sI3305
F26477.711025273686
sI4600
F28638.57355839703
sI4500
F20947.675889631642
sI2300
F20854.39314758459
sa(dp46
I3200
F27593.305353145348
sI1600
F21628.737237114496
sI4100
F28030.928885137506
sI1800
F24625.635659449643
sI300
F23810.73871752999
sI2700
F35840.775129177986
sI3600
F32504.155591096674
sI3800
F29180.689346354353
sI1300
F34629.559378562
sI2200
F30210.675822701374
sI900
F30769.726726387275
sI3100
F23633.196264595867
sI3304
F22458.776256561945
sI4000
F22486.10034207706
sI4400
F19580.11962281458
sI1700
F21284.144951964783
sI2600
F45754.13025060073
sI1500
F30420.790705200958
sI3500
F38634.85131098572
sI1200
F22766.295615233583
sI200
F25039.59643410866
sI2100
F26444.94020359672
sI3000
F25990.49423900899
sI3700
F30652.276234603294
sI700
F23624.92410650728
sI4800
F26655.303228512115
sI800
F31335.175973979498
sI2500
F33858.3079830257
sI3400
F44893.84267923269
sI1100
F31249.506696404667
sI4300
F27545.025261152503
sI2000
F27532.562156570864
sI1400
F49371.983482251526
sI2900
F21285.37537501678
sI600
F20067.852221229852
sI4700
F27115.356491164945
sI2400
F36708.71199442994
sI400
F31561.93875402449
sI100
F22551.7796692694
sI3301
F17913.785930469825
sI3302
F30599.323242465853
sI3303
F16490.941846926573
sI4200
F26143.283302183012
sI3900
F33583.811158055454
sI1900
F18568.41333787228
sI2800
F34678.10537041297
sI1000
F31813.52248300332
sI500
F34004.0450943495
sI3305
F26463.22849074244
sI4600
F28576.313701033818
sI4500
F21108.84714353189
sI2300
F20764.85501026054
sa(dp47
I3200
F27974.126697315503
sI1600
F21440.78138875518
sI4100
F27835.098974343367
sI1800
F24533.206418255948
sI300
F23715.200131414884
sI2700
F35683.66613530584
sI3600
F32795.010534112575
sI3800
F28892.707916382544
sI1300
F34580.80572956374
sI2200
F30030.201902846777
sI900
F30291.20153138625
sI3100
F23601.21664971895
sI3304
F22378.62971476732
sI4000
F22435.048101644734
sI4400
F19880.130045504986
sI1700
F21364.49070865388
sI2600
F45750.6797256102
sI1500
F30013.57482585515
sI3500
F39020.26271678114
sI1200
F22451.403297605633
sI200
F25154.563333322247
sI2100
F26629.368561795265
sI3000
F25943.84044041202
sI3700
F30975.331320494337
sI700
F23505.12735826504
sI4800
F26487.833638656302
sI800
F31221.050994863657
sI2500
F33590.58326852393
sI3400
F45035.99598518711
sI1100
F31539.873299554758
sI4300
F27381.210170612867
sI2000
F27509.378093288964
sI1400
F50440.28382220449
sI2900
F21247.676920212125
sI600
F20298.026227097213
sI4700
F27158.36849448743
sI2400
F36331.175719675615
sI400
F31161.345064411347
sI100
F22461.7239703689
sI3301
F18002.26495927496
sI3302
F30804.76588701194
sI3303
F16465.019112286405
sI4200
F26674.068370552068
sI3900
F33497.67432877663
sI1900
F18647.6123190379
sI2800
F35188.8912699287
sI1000
F31440.282849780466
sI500
F34210.79337611617
sI3305
F26661.6362189191
sI4600
F28807.23450113049
sI4500
F21069.74176017646
sI2300
F20715.480502059174
sa(dp48
I3200
F28083.281537625222
sI1600
F22241.02332477291
sI4100
F27882.38496372164
sI1800
F24649.61659291713
sI300
F23521.47733035252
sI2700
F35630.13758341923
sI3600
F32673.255845797725
sI3800
F28928.101419552488
sI1300
F34720.7571780546
sI2200
F29842.516440496143
sI900
F29620.728649002565
sI3100
F23723.79407574143
sI3304
F22473.20992900621
sI4000
F22468.45228394392
sI4400
F19942.655989026447
sI1700
F21372.889123291232
sI2600
F44679.53944713579
sI1500
F30303.616237434857
sI3500
F38549.69572495403
sI1200
F22487.165528570007
sI200
F25285.159708128038
sI2100
F26575.608197921407
sI3000
F26105.839891931122
sI3700
F30640.485903271197
sI700
F23615.922839238352
sI4800
F26524.343758612453
sI800
F31249.854834015143
sI2500
F32880.48993885902
sI3400
F45352.26077708061
sI1100
F31292.326020684814
sI4300
F27582.932338055212
sI2000
F27355.14422021797
sI1400
F49841.72787401288
sI2900
F21316.845230625127
sI600
F20123.20865314887
sI4700
F27041.4586166803
sI2400
F36221.46077739778
sI400
F31344.121097292158
sI100
F22696.17728351407
sI3301
F17881.80372591315
sI3302
F30400.45072143526
sI3303
F16414.57891971315
sI4200
F26611.693902217736
sI3900
F33373.11839617764
sI1900
F18263.640326324625
sI2800
F35284.10477893556
sI1000
F31358.782750728915
sI500
F34201.44279178057
sI3305
F26558.65186236554
sI4600
F28687.530187252312
sI4500
F21101.411225560834
sI2300
F20685.66534909234
sa(dp49
I3200
F28649.7265416835
sI1600
F21627.06186237215
sI4100
F27988.500570308002
sI1800
F24698.596422912957
sI300
F23437.60842606325
sI2700
F35750.53056729544
sI3600
F32725.36068043621
sI3800
F28833.81198006634
sI1300
F34961.496677022384
sI2200
F30390.761432727762
sI900
F30602.481091732436
sI3100
F23439.598197446772
sI3304
F22504.86272782239
sI4000
F22399.38064578648
sI4400
F19934.41132305712
sI1700
F21161.047003011055
sI2600
F46308.52175060951
sI1500
F30646.50659207272
sI3500
F38748.762775749325
sI1200
F22772.53767907501
sI200
F25083.560052493893
sI2100
F26461.403221327768
sI3000
F25942.55670511723
sI3700
F30503.268217332585
sI700
F23601.63007858758
sI4800
F26550.637762812406
sI800
F30831.803091073412
sI2500
F33501.1474531906
sI3400
F45769.908947900214
sI1100
F31306.272661311275
sI4300
F27529.808203682453
sI2000
F27314.175538583415
sI1400
F51102.24637203072
sI2900
F20885.664231494393
sI600
F19931.95350467162
sI4700
F27229.82362804913
sI2400
F35606.88211038856
sI400
F31366.718095712095
sI100
F22555.13180026826
sI3301
F17768.07943885649
sI3302
F30329.50646496254
sI3303
F16391.480757015437
sI4200
F26695.01706299011
sI3900
F33489.56061344782
sI1900
F18554.242000878465
sI2800
F35421.02568705346
sI1000
F31437.1307056487
sI500
F34124.34872978654
sI3305
F26633.079153190625
sI4600
F28820.960207625747
sI4500
F21067.551344497788
sI2300
F20930.98616884283
sa(dp50
I3200
F28289.2461056098
sI1600
F21619.097084463847
sI4100
F27983.231189189803
sI1800
F24755.356378409102
sI300
F23726.983354094293
sI2700
F35837.69923781725
sI3600
F32595.205780470606
sI3800
F28716.14577384755
sI1300
F34532.20126844375
sI2200
F30374.925900484166
sI900
F30208.727856420646
sI3100
F23911.948897467202
sI3304
F22327.292045208822
sI4000
F22467.417043091842
sI4400
F19600.472186745985
sI1700
F21354.13594149385
sI2600
F46053.19393204657
sI1500
F30528.553944357656
sI3500
F38431.401425771306
sI1200
F22586.531558618175
sI200
F25095.84065196379
sI2100
F26391.562516630518
sI3000
F25945.551135073096
sI3700
F30040.539643729287
sI700
F23540.93938062349
sI4800
F26934.652651736542
sI800
F31286.089104466977
sI2500
F34570.20838223991
sI3400
F44968.6978537833
sI1100
F31853.692456514436
sI4300
F27759.09337572669
sI2000
F27593.591709205324
sI1400
F49960.14482728208
sI2900
F21366.585066586795
sI600
F20159.899142742343
sI4700
F27154.435727113287
sI2400
F35840.47003762361
sI400
F31271.693615187887
sI100
F22576.068255948303
sI3301
F17861.994370814144
sI3302
F30520.173331941212
sI3303
F16619.064364995316
sI4200
F26691.462487783287
sI3900
F33658.51995261158
sI1900
F18497.772610445634
sI2800
F34497.88216138857
sI1000
F31537.788442839126
sI500
F34291.655557482234
sI3305
F26578.549433757504
sI4600
F28768.582263837263
sI4500
F21039.822232433013
sI2300
F20728.97785996565
sa(dp51
I3200
F27005.339928238427
sI1600
F21661.099540049054
sI4100
F27984.163755151847
sI1800
F24565.067895461303
sI300
F23863.48328882487
sI2700
F36090.459057800945
sI3600
F32818.72421629659
sI3800
F28634.714342902458
sI1300
F34684.87822349785
sI2200
F29627.037403708608
sI900
F30048.111968285815
sI3100
F23840.564598147477
sI3304
F22373.468373522363
sI4000
F22529.030557376904
sI4400
F19861.473076068614
sI1700
F21478.13265048376
sI2600
F45940.48295349443
sI1500
F30603.732805656222
sI3500
F38233.486193730445
sI1200
F22600.64469134671
sI200
F25137.675274848163
sI2100
F26515.77855390327
sI3000
F25689.374606265283
sI3700
F30674.68182579326
sI700
F23781.29098024372
sI4800
F26675.46914434587
sI800
F31842.109895476322
sI2500
F33787.82161805
sI3400
F44889.10521141395
sI1100
F31350.266196377706
sI4300
F27970.615202296754
sI2000
F27533.130881039397
sI1400
F48832.510056330866
sI2900
F21249.722225403577
sI600
F19913.252004430764
sI4700
F27185.30030126548
sI2400
F36737.67795070889
sI400
F31467.53678754985
sI100
F22654.64924509195
sI3301
F17915.185752621044
sI3302
F30630.6299460664
sI3303
F16427.21395361138
sI4200
F26366.358902386426
sI3900
F33544.849281564144
sI1900
F18244.066994386743
sI2800
F35196.02542136634
sI1000
F31262.244159775466
sI500
F34376.33074260072
sI3305
F26430.612359044688
sI4600
F28903.46053041959
sI4500
F21065.955439133493
sI2300
F20696.98755675644
sa(dp52
I3200
F28456.18785294582
sI1600
F21460.73692663908
sI4100
F28003.985935778415
sI1800
F24356.557541889142
sI300
F23490.95544142649
sI2700
F35734.22328175559
sI3600
F32562.667235247674
sI3800
F28726.116475643244
sI1300
F34335.851713465134
sI2200
F29947.76886950446
sI900
F30223.139733570897
sI3100
F23714.302914313357
sI3304
F22451.204147580098
sI4000
F22328.052192072973
sI4400
F19385.356607113255
sI1700
F21223.18146461396
sI2600
F45445.736219629835
sI1500
F30745.782393216712
sI3500
F38498.37762390901
sI1200
F22757.541687372028
sI200
F25085.77715062115
sI2100
F26407.37517668211
sI3000
F25646.19634342842
sI3700
F30735.187049364715
sI700
F23481.361320115233
sI4800
F26635.560196979914
sI800
F31417.98115240366
sI2500
F33450.34384269027
sI3400
F45046.475573477815
sI1100
F30874.151831720934
sI4300
F27111.29401144774
sI2000
F27527.171948144256
sI1400
F50281.76403038434
sI2900
F20912.725467000502
sI600
F19996.189186957305
sI4700
F26784.77288497541
sI2400
F36861.190683415516
sI400
F31171.156289791175
sI100
F22579.56873892662
sI3301
F17892.371268783514
sI3302
F30582.91170239219
sI3303
F16429.919807381
sI4200
F26591.5447214577
sI3900
F33408.8482786982
sI1900
F18512.592704498653
sI2800
F35147.11401488348
sI1000
F31771.781963958347
sI500
F34196.99834757881
sI3305
F26432.535090798836
sI4600
F28715.404534194062
sI4500
F20999.39983942316
sI2300
F20674.31941257307
sa(dp53
I3200
F28539.604241752062
sI1600
F21353.605772916573
sI4100
F28133.797901662267
sI1800
F24403.703746901334
sI300
F23833.088090208337
sI2700
F35445.87700673164
sI3600
F33034.92923433429
sI3800
F28781.19563058195
sI1300
F34692.844224589164
sI2200
F30456.575604489994
sI900
F30526.654598246372
sI3100
F23627.386944771213
sI3304
F22245.031754565847
sI4000
F22417.661933710326
sI4400
F19447.453577788892
sI1700
F21228.674384590762
sI2600
F45835.80011614007
sI1500
F30550.49865045697
sI3500
F38555.01768991132
sI1200
F22751.534624488948
sI200
F25218.366446742384
sI2100
F26487.83808561867
sI3000
F26037.770488856775
sI3700
F30515.141816580785
sI700
F23251.282655991316
sI4800
F26699.77253319745
sI800
F31744.462428146842
sI2500
F33458.88681805364
sI3400
F45217.313556831425
sI1100
F31310.43164745579
sI4300
F27657.237092166688
sI2000
F27454.034599609782
sI1400
F48962.80166894737
sI2900
F21274.32459442791
sI600
F20211.470144611678
sI4700
F26844.463545221915
sI2400
F36720.02408990105
sI400
F31324.164420363984
sI100
F22532.35781150269
sI3301
F18394.20609544238
sI3302
F30164.493194150666
sI3303
F16385.125028250543
sI4200
F26731.137586369783
sI3900
F33087.05045493459
sI1900
F18343.129249615093
sI2800
F35217.73210859928
sI1000
F31606.893870112544
sI500
F34113.47168438565
sI3305
F26749.002975460287
sI4600
F28775.640013829627
sI4500
F21056.70196557389
sI2300
F20872.77142401288
sa(dp54
I3200
F27997.422871908348
sI1600
F21462.023539830345
sI4100
F27834.6677168315
sI1800
F24392.515753101186
sI300
F23517.290401233407
sI2700
F35722.47688507158
sI3600
F32782.321690041375
sI3800
F28888.13276881519
sI1300
F34806.71974384035
sI2200
F29956.092838638047
sI900
F30355.517147816645
sI3100
F23717.530242655757
sI3304
F22433.46233666212
sI4000
F22637.262331333757
sI4400
F19559.10476603251
sI1700
F21626.54887106828
sI2600
F45449.170829797025
sI1500
F30957.547757908003
sI3500
F38685.85814122362
sI1200
F22644.910040965297
sI200
F25095.146073105814
sI2100
F26364.903091014596
sI3000
F25857.225535029615
sI3700
F30650.92261988032
sI700
F23561.575922976463
sI4800
F26820.03035852738
sI800
F31709.711653090268
sI2500
F33554.90296530298
sI3400
F45047.1096547139
sI1100
F30925.96986773144
sI4300
F27241.49563850665
sI2000
F27563.563856456098
sI1400
F50000.56091517198
sI2900
F21490.762991393723
sI600
F20325.029021560033
sI4700
F26726.890877261667
sI2400
F36383.1700735394
sI400
F31313.737893210804
sI100
F22535.243573273427
sI3301
F17994.468435937106
sI3302
F31114.731994115544
sI3303
F16758.837458493625
sI4200
F26569.139606837853
sI3900
F33945.86362562875
sI1900
F18670.26696286901
sI2800
F35169.845218227514
sI1000
F31406.713216002456
sI500
F34064.020013275804
sI3305
F26695.79522047191
sI4600
F28609.070582725923
sI4500
F21068.48316031029
sI2300
F20625.26295566517
sa(dp55
I3200
F28383.736783305972
sI1600
F21678.615317629003
sI4100
F28059.322949910882
sI1800
F24438.078737727115
sI300
F23416.85226630168
sI2700
F35724.21831762181
sI3600
F32577.3548487811
sI3800
F28676.03866741559
sI1300
F34679.605783229104
sI2200
F29953.36391514236
sI900
F30338.30013429335
sI3100
F23486.793786997587
sI3304
F22512.60478714255
sI4000
F22537.52532568694
sI4400
F19829.654115503898
sI1700
F21222.964436340957
sI2600
F46053.5342062413
sI1500
F30597.9447284684
sI3500
F38200.06673395907
sI1200
F22323.444466885758
sI200
F25238.05355682834
sI2100
F26208.16558150894
sI3000
F26281.422833015044
sI3700
F30393.516545991504
sI700
F23501.03598348855
sI4800
F26689.462596243553
sI800
F32284.47744534316
sI2500
F33491.66535624562
sI3400
F44805.89024656194
sI1100
F31223.483304829762
sI4300
F27803.01225075929
sI2000
F27749.19676566598
sI1400
F50326.19605150499
sI2900
F21218.22716372373
sI600
F20020.011068102605
sI4700
F27011.056751903747
sI2400
F35924.87285273822
sI400
F31620.117030530237
sI100
F22171.416515124612
sI3301
F17794.59238289168
sI3302
F30457.730527846004
sI3303
F16432.06982274206
sI4200
F26604.47843078343
sI3900
F33858.33723736552
sI1900
F18443.655878449015
sI2800
F34943.71999753892
sI1000
F31349.85576932289
sI500
F34569.27801620884
sI3305
F26535.06884147186
sI4600
F28787.97801361584
sI4500
F21013.251046518148
sI2300
F20821.664260413676
sa(dp56
I3200
F28360.493371657925
sI1600
F21419.1103499959
sI4100
F27861.748231450736
sI1800
F24476.30290394648
sI300
F23435.628099985774
sI2700
F35796.46978038622
sI3600
F32738.99146470165
sI3800
F28598.540279579312
sI1300
F34455.12694886745
sI2200
F29965.44042902447
sI900
F30261.728197251337
sI3100
F23573.723022876587
sI3304
F22373.565441669143
sI4000
F22548.76585337773
sI4400
F19577.731618636026
sI1700
F21304.127119005498
sI2600
F45761.402672282275
sI1500
F30573.88321897991
sI3500
F38073.92401450741
sI1200
F22595.09047745491
sI200
F25044.32006458296
sI2100
F26508.548860545518
sI3000
F25868.358475270354
sI3700
F30279.78845560157
sI700
F23575.071106979543
sI4800
F26708.711779771318
sI800
F31529.14156451412
sI2500
F33796.91085853016
sI3400
F45108.95301114464
sI1100
F31449.29403379194
sI4300
F27901.067585458193
sI2000
F28020.56065168334
sI1400
F50461.297276861165
sI2900
F20878.08233702453
sI600
F20006.008327704512
sI4700
F26923.393695010316
sI2400
F35881.30898354101
sI400
F31403.135218533826
sI100
F22823.00754949867
sI3301
F17760.218662643405
sI3302
F30584.812736652053
sI3303
F16798.17702561784
sI4200
F26716.145200125087
sI3900
F33662.19835384641
sI1900
F18877.544873042796
sI2800
F34619.445774676344
sI1000
F31352.470201081404
sI500
F34245.8202646667
sI3305
F26579.330573477255
sI4600
F28591.609395049098
sI4500
F21052.210651163394
sI2300
F20547.701924148678
sa(dp57
I3200
F28118.03900285512
sI1600
F21603.29446991082
sI4100
F28023.252193184107
sI1800
F24416.57691354778
sI300
F23429.051761408984
sI2700
F36037.445053983196
sI3600
F32717.176687711668
sI3800
F28897.571664183964
sI1300
F34635.72216480279
sI2200
F29775.547192982576
sI900
F30338.726885910375
sI3100
F23805.215481795785
sI3304
F22535.335831168046
sI4000
F22409.511689367213
sI4400
F19933.835878710786
sI1700
F21224.657879233197
sI2600
F46932.95510826223
sI1500
F30653.687557229176
sI3500
F38524.12099735166
sI1200
F22495.852788270367
sI200
F25116.884884917818
sI2100
F26408.093500713425
sI3000
F26261.59877175737
sI3700
F30825.935525505356
sI700
F23517.39705509659
sI4800
F26687.47267548478
sI800
F30998.45523273913
sI2500
F33366.54055281097
sI3400
F44939.80368028524
sI1100
F31435.37996742332
sI4300
F27549.55370092265
sI2000
F27913.798291950505
sI1400
F50349.96971355409
sI2900
F21139.00844739828
sI600
F20165.266132073717
sI4700
F26921.28961829425
sI2400
F36220.52346998873
sI400
F31341.170751568196
sI100
F22270.366072897737
sI3301
F17984.765754941796
sI3302
F30626.445280089945
sI3303
F16377.241580276805
sI4200
F26676.31575100615
sI3900
F33294.71452946714
sI1900
F18460.033857513514
sI2800
F35450.859000476325
sI1000
F31245.196166447146
sI500
F34298.153856814795
sI3305
F26673.766270879136
sI4600
F28716.12965440042
sI4500
F21020.643473610544
sI2300
F20770.07625353502
sa(dp58
I3200
F28086.216269814868
sI1600
F21794.635275269506
sI4100
F28034.65711821717
sI1800
F24642.614882413847
sI300
F23473.980196842123
sI2700
F35754.18444013518
sI3600
F32803.82183299841
sI3800
F28660.06124773101
sI1300
F34729.32299283691
sI2200
F29932.308605132985
sI900
F30763.026035370727
sI3100
F24022.13950794632
sI3304
F22396.11143714735
sI4000
F22445.005670246977
sI4400
F19517.705122775595
sI1700
F21317.692934655453
sI2600
F45857.2993642976
sI1500
F30649.490748265704
sI3500
F38423.585084700935
sI1200
F22595.994436054338
sI200
F25119.403997278896
sI2100
F26575.056234938747
sI3000
F26040.49012445037
sI3700
F30749.359785522356
sI700
F23519.77190611779
sI4800
F26689.848520364958
sI800
F31490.668384375207
sI2500
F33332.163315493424
sI3400
F44573.016474297256
sI1100
F31185.61566382626
sI4300
F27596.750108371856
sI2000
F27954.21930387362
sI1400
F50540.09809691837
sI2900
F21240.186266647128
sI600
F20019.791342558998
sI4700
F27121.359995809034
sI2400
F36580.416637204326
sI400
F31036.28713493631
sI100
F22731.741943204262
sI3301
F17863.36816686024
sI3302
F30824.520940690963
sI3303
F16123.16234424269
sI4200
F26191.390102396566
sI3900
F34005.38478000686
sI1900
F18669.03459865962
sI2800
F35138.93421847301
sI1000
F31666.52621341999
sI500
F34256.23624805555
sI3305
F26585.5263916729
sI4600
F28745.569774549982
sI4500
F21048.063224734826
sI2300
F20652.791849496985
sa(dp59
I3200
F27639.76908983832
sI1600
F21484.94348060525
sI4100
F27965.01137627948
sI1800
F24557.34973630704
sI300
F23476.22747342645
sI2700
F35525.93775928926
sI3600
F33074.53626030377
sI3800
F28875.50937454821
sI1300
F35324.83625518293
sI2200
F29886.35397227814
sI900
F30318.591597838153
sI3100
F23777.680727693176
sI3304
F22505.89754509478
sI4000
F22480.61470941819
sI4400
F20253.496505653075
sI1700
F21800.596275763713
sI2600
F46330.352296786274
sI1500
F31076.068568996674
sI3500
F38433.75544632325
sI1200
F22707.7800244368
sI200
F25115.628083087508
sI2100
F26404.081055127248
sI3000
F25942.507123707077
sI3700
F30590.595077326234
sI700
F23596.057213670425
sI4800
F26711.410229686546
sI800
F31453.213576149483
sI2500
F33499.41755018345
sI3400
F45404.79193723635
sI1100
F31404.16691770892
sI4300
F27454.070346742337
sI2000
F27538.533319632057
sI1400
F50213.914746018854
sI2900
F21290.575526205594
sI600
F19992.772327429448
sI4700
F26900.85510511972
sI2400
F35942.46871190343
sI400
F31409.412360141778
sI100
F22528.069672457554
sI3301
F18355.81923987977
sI3302
F30750.04310357707
sI3303
F16279.463072012593
sI4200
F26589.31217672283
sI3900
F32947.13291772036
sI1900
F18510.21618676612
sI2800
F35116.41874435549
sI1000
F31247.585112299737
sI500
F34311.08775470836
sI3305
F26450.352910585487
sI4600
F28803.048687206207
sI4500
F21041.576042782784
sI2300
F20828.8354378059
sa(dp60
I3200
F28033.69100556633
sI1600
F21913.97417494876
sI4100
F28014.697836802785
sI1800
F23699.62070718892
sI300
F23492.140184020005
sI2700
F35692.20784955866
sI3600
F32418.238927091727
sI3800
F28764.552782220937
sI1300
F34676.96915134853
sI2200
F30611.62961067984
sI900
F30260.723917340136
sI3100
F23639.437455791704
sI3304
F22326.512506246414
sI4000
F22660.26367286223
sI4400
F19796.712703785794
sI1700
F21387.204196872466
sI2600
F47531.501136660605
sI1500
F30632.614314262737
sI3500
F38437.23532007149
sI1200
F22541.794539852992
sI200
F25241.852706804308
sI2100
F26360.556838230135
sI3000
F25956.009667765757
sI3700
F30627.57132403314
sI700
F23422.639545702044
sI4800
F26718.233880991196
sI800
F31642.454616543022
sI2500
F33719.618294164015
sI3400
F45004.52498889521
sI1100
F31278.87286400878
sI4300
F27287.166816928388
sI2000
F28175.916520958384
sI1400
F49901.016839581906
sI2900
F21185.66922011315
sI600
F20021.169405069995
sI4700
F27218.287364499825
sI2400
F35884.463660925656
sI400
F30930.02898946758
sI100
F22506.676920596274
sI3301
F18030.869662780773
sI3302
F30733.13314969172
sI3303
F16498.9899094263
sI4200
F26651.914060595587
sI3900
F32994.63444892752
sI1900
F18635.511304476924
sI2800
F34591.768078297595
sI1000
F31640.57609395868
sI500
F34306.71380750671
sI3305
F26592.65847375106
sI4600
F28736.303537476248
sI4500
F21067.997302190885
sI2300
F20867.08915384361
sa(dp61
I3200
F28312.79366215044
sI1600
F21597.073470546668
sI4100
F28083.622147934944
sI1800
F24386.752497367645
sI300
F23036.930022159213
sI2700
F34848.26721240255
sI3600
F32664.188771976966
sI3800
F28543.40946363492
sI1300
F35034.261350025685
sI2200
F30047.67620842019
sI900
F30542.31108718821
sI3100
F23723.308304466937
sI3304
F22425.88102339524
sI4000
F22520.161676944204
sI4400
F19462.904218692252
sI1700
F21311.66151856159
sI2600
F45983.89057354542
sI1500
F30836.320244271035
sI3500
F38580.18878199498
sI1200
F22505.465377865192
sI200
F25084.552611918323
sI2100
F26642.543953621866
sI3000
F26386.079260556697
sI3700
F30664.916131295184
sI700
F23543.59285206026
sI4800
F26644.431873512545
sI800
F31514.88632211337
sI2500
F33495.28274619631
sI3400
F45326.224534722925
sI1100
F31468.188883246054
sI4300
F27905.190815474136
sI2000
F27901.711594541823
sI1400
F49465.42790388472
sI2900
F21305.892891850763
sI600
F20186.22298525645
sI4700
F27104.042970489576
sI2400
F36453.63943554328
sI400
F31020.243635699582
sI100
F22495.952135389274
sI3301
F17957.070047798657
sI3302
F30563.90931322635
sI3303
F16540.72820075401
sI4200
F26751.183873389356
sI3900
F33514.590513226016
sI1900
F18354.787862304325
sI2800
F35226.32721129391
sI1000
F31043.060345884744
sI500
F34244.01385489646
sI3305
F26456.881942377247
sI4600
F28623.02541127392
sI4500
F21112.540372811523
sI2300
F20643.25219163815
sa(dp62
I3200
F28428.606240530567
sI1600
F21585.005729081364
sI4100
F28179.795290035436
sI1800
F24540.500499721238
sI300
F23437.15329127907
sI2700
F36036.888337806886
sI3600
F32528.152920710858
sI3800
F29089.491237548948
sI1300
F34972.097801435244
sI2200
F30084.053052724645
sI900
F30563.143226700522
sI3100
F23767.573092742226
sI3304
F22569.94468725438
sI4000
F22441.268426660718
sI4400
F19452.426761868828
sI1700
F21327.247701111974
sI2600
F45859.25210550068
sI1500
F30587.23551953409
sI3500
F38429.65429631858
sI1200
F22780.63476342821
sI200
F25144.700772679887
sI2100
F26513.68438245549
sI3000
F25910.73165555346
sI3700
F30475.964391193018
sI700
F23503.910513090268
sI4800
F26723.3078835125
sI800
F32224.15281889697
sI2500
F33629.20377373165
sI3400
F45464.868670708405
sI1100
F31636.34283835364
sI4300
F27475.576838398923
sI2000
F27403.960615023276
sI1400
F50113.76381018086
sI2900
F21151.354629849564
sI600
F20188.65639583305
sI4700
F26985.827446252988
sI2400
F36453.0002231561
sI400
F31287.337861451037
sI100
F22468.782018624635
sI3301
F17964.754232052477
sI3302
F30694.431915113026
sI3303
F16346.188887804108
sI4200
F26641.379492282387
sI3900
F33660.34358804701
sI1900
F18646.48398754024
sI2800
F34732.224460303536
sI1000
F31590.376831028563
sI500
F34232.98497486847
sI3305
F26880.705981839998
sI4600
F28854.450048904717
sI4500
F21082.490742732225
sI2300
F20621.962962625643
sa(dp63
I3200
F27956.781184462263
sI1600
F21309.914942724918
sI4100
F28011.50161637191
sI1800
F24670.175211588037
sI300
F23831.48353264155
sI2700
F35734.67993683259
sI3600
F32927.795510063246
sI3800
F28844.013997636994
sI1300
F34673.79574974322
sI2200
F29818.199917713682
sI900
F30883.59255274763
sI3100
F23788.850072590554
sI3304
F22273.41990104437
sI4000
F22811.42913966472
sI4400
F19844.581112148062
sI1700
F21335.702978938687
sI2600
F46162.03935261534
sI1500
F30738.245792538004
sI3500
F38821.22555235669
sI1200
F22706.83273221708
sI200
F25083.133879033856
sI2100
F26321.224901481677
sI3000
F25968.978149375584
sI3700
F30596.77375161656
sI700
F23603.985747850107
sI4800
F26490.44856687975
sI800
F31564.8201954665
sI2500
F33339.322406633095
sI3400
F45073.03464736054
sI1100
F31293.734436812574
sI4300
F27665.227035265067
sI2000
F28055.647283620172
sI1400
F50305.74876299997
sI2900
F21400.590969462235
sI600
F19898.928972910526
sI4700
F27043.168617003117
sI2400
F35984.23605355624
sI400
F31797.34879335438
sI100
F22404.37064597382
sI3301
F18143.353786828135
sI3302
F30585.564833994864
sI3303
F16431.817924449813
sI4200
F26259.076315560735
sI3900
F33133.99288038697
sI1900
F18425.10854055558
sI2800
F35105.607510320006
sI1000
F31522.266771369108
sI500
F34231.48062894092
sI3305
F26662.017651206086
sI4600
F28681.864889192108
sI4500
F21092.81076130652
sI2300
F20634.561919368225
sa(dp64
I3200
F28189.933827012213
sI1600
F21395.392320468258
sI4100
F28023.72065921084
sI1800
F24471.245742144114
sI300
F23790.56451747036
sI2700
F35711.634547444526
sI3600
F33034.26031624756
sI3800
F28849.95023418283
sI1300
F34737.32828139278
sI2200
F29700.369313432555
sI900
F30622.66227570355
sI3100
F23878.53080925789
sI3304
F22385.860919239978
sI4000
F22401.80007723529
sI4400
F19741.850803674337
sI1700
F21278.898278220975
sI2600
F45994.46621297828
sI1500
F30509.322344849512
sI3500
F38434.393989255484
sI1200
F22583.179583831843
sI200
F25189.839782468418
sI2100
F26503.70195831413
sI3000
F25970.52124316801
sI3700
F30562.933253985346
sI700
F23955.857360656068
sI4800
F26699.098382812183
sI800
F31539.197207822606
sI2500
F33187.924416959635
sI3400
F45320.78251721388
sI1100
F31597.962718740713
sI4300
F27551.90513481488
sI2000
F27698.534096041018
sI1400
F51004.42234796315
sI2900
F21282.646522190364
sI600
F20203.21287413803
sI4700
F26755.670096636048
sI2400
F36259.2920271821
sI400
F31342.890633869978
sI100
F22778.675978315525
sI3301
F18272.383062730376
sI3302
F30790.426885744986
sI3303
F16411.315150386632
sI4200
F26973.48158527255
sI3900
F33300.84578465383
sI1900
F18823.25332774166
sI2800
F35492.307816756336
sI1000
F31211.01451789562
sI500
F34308.406091922305
sI3305
F26625.177940119516
sI4600
F28722.25010063849
sI4500
F21000.663806139215
sI2300
F20757.961253303227
sa(dp65
I3200
F28747.59501538598
sI1600
F21539.31489858114
sI4100
F28055.79261525012
sI1800
F24533.712570541276
sI300
F23595.952906972423
sI2700
F36463.25176742463
sI3600
F32713.703327067076
sI3800
F28775.424036929646
sI1300
F34570.995954702645
sI2200
F30367.033354959847
sI900
F30219.607665127707
sI3100
F24024.54667023547
sI3304
F22526.492950996228
sI4000
F22730.2119536667
sI4400
F20028.276861257753
sI1700
F21341.966991980797
sI2600
F45403.93937738048
sI1500
F30575.050718091126
sI3500
F38504.20687923626
sI1200
F22829.796892686394
sI200
F25124.36492042569
sI2100
F26505.78800175506
sI3000
F25981.57531039274
sI3700
F30330.205267283927
sI700
F23585.98376645693
sI4800
F26564.57400477305
sI800
F31453.586924729956
sI2500
F33425.059904606336
sI3400
F45598.10840621919
sI1100
F31090.010252854063
sI4300
F27562.732827018044
sI2000
F27530.461585046207
sI1400
F50484.13345542493
sI2900
F20960.022166103736
sI600
F20144.316380177974
sI4700
F27012.38956798844
sI2400
F36160.922552888835
sI400
F30925.7091265355
sI100
F22545.739063099158
sI3301
F17903.82852130228
sI3302
F30755.48175728923
sI3303
F16393.950844700117
sI4200
F26418.294498925705
sI3900
F32978.3321000761
sI1900
F18366.558412483846
sI2800
F35148.46053067415
sI1000
F31780.902123738277
sI500
F34441.86215419479
sI3305
F26107.716795212036
sI4600
F28636.368758091638
sI4500
F21064.4451554007
sI2300
F20825.025882426842
sa(dp66
I3200
F28148.81679285999
sI1600
F21675.943991023683
sI4100
F27967.499820769637
sI1800
F24680.127259972975
sI300
F23436.708508532607
sI2700
F35587.417532615895
sI3600
F32630.00623577696
sI3800
F28856.812442575996
sI1300
F35065.793233918
sI2200
F29710.29894350682
sI900
F30387.80745036488
sI3100
F23675.111718408512
sI3304
F22466.59188011302
sI4000
F22490.91547894675
sI4400
F19956.72416510872
sI1700
F21411.95420336708
sI2600
F51196.87711087507
sI1500
F30653.4131993631
sI3500
F38234.47156964641
sI1200
F22492.50791328793
sI200
F25106.261052733138
sI2100
F26473.25067135315
sI3000
F26115.835254156525
sI3700
F30326.043938584146
sI700
F23485.90681971003
sI4800
F26823.00929244939
sI800
F31008.51176018586
sI2500
F33521.65671251938
sI3400
F44166.25130633418
sI1100
F30873.800587484493
sI4300
F27581.28944940591
sI2000
F28217.243043864346
sI1400
F49613.99368931974
sI2900
F21784.077796360707
sI600
F19894.14766905331
sI4700
F27215.331958246847
sI2400
F36350.03308512325
sI400
F31539.562413726442
sI100
F22960.961422874298
sI3301
F17934.446875089234
sI3302
F30842.703057822793
sI3303
F16397.413403990904
sI4200
F27230.889070801466
sI3900
F33535.855102329864
sI1900
F18498.104919617745
sI2800
F35178.74951518322
sI1000
F30724.489735802526
sI500
F34271.78614732724
sI3305
F26529.58928785402
sI4600
F28640.73054322813
sI4500
F20909.222994350177
sI2300
F20661.34804292546
sa(dp67
I3200
F28023.16143383122
sI1600
F21710.62334448141
sI4100
F27842.429724558
sI1800
F24310.708256397065
sI300
F23422.97379450933
sI2700
F35595.178726801634
sI3600
F32860.653867419
sI3800
F28974.558432388192
sI1300
F35006.52701007668
sI2200
F30507.716882717254
sI900
F29618.96172815048
sI3100
F23677.98259500098
sI3304
F22243.0680215363
sI4000
F22493.7029662149
sI4400
F19564.275330678334
sI1700
F21169.899668755876
sI2600
F45742.73141617447
sI1500
F30608.265148579332
sI3500
F38889.53055571498
sI1200
F22699.66301404704
sI200
F25267.12357626659
sI2100
F26421.587275654336
sI3000
F26099.324236807384
sI3700
F30544.70713232826
sI700
F23735.648881044242
sI4800
F26672.66816371063
sI800
F31494.53978925577
sI2500
F33953.599277249574
sI3400
F45683.7046762596
sI1100
F31133.364894097504
sI4300
F27349.130755588016
sI2000
F27269.106125735416
sI1400
F50015.11826025907
sI2900
F20746.232701300996
sI600
F20203.133395932764
sI4700
F27032.51064810076
sI2400
F36922.69431057177
sI400
F31388.022498918166
sI100
F22573.8623481391
sI3301
F17714.85276688727
sI3302
F30820.411748966988
sI3303
F16510.20476158759
sI4200
F26389.635084521135
sI3900
F33660.484578148506
sI1900
F18658.408266385108
sI2800
F35143.04432692226
sI1000
F31654.612041887438
sI500
F34099.989253195665
sI3305
F26593.805595332404
sI4600
F28697.400580828376
sI4500
F21114.752547660562
sI2300
F20746.886851567117
sa(dp68
I3200
F28128.62628436115
sI1600
F21555.631632877266
sI4100
F28042.195441314376
sI1800
F24642.73786453308
sI300
F23736.58342814774
sI2700
F35787.10450951936
sI3600
F33659.78544066972
sI3800
F28939.15024456406
sI1300
F34722.1375828356
sI2200
F29485.871482191207
sI900
F30411.661299404517
sI3100
F23647.727720110455
sI3304
F22421.848715905646
sI4000
F22461.93685892524
sI4400
F19926.502673675743
sI1700
F20998.195761820407
sI2600
F52424.98460222051
sI1500
F30537.91303790056
sI3500
F38569.62914659612
sI1200
F22668.72651841321
sI200
F25203.00559063221
sI2100
F26455.22422096938
sI3000
F26011.143058593552
sI3700
F30741.665993730512
sI700
F23946.095743960836
sI4800
F26823.741741192018
sI800
F31642.16660277363
sI2500
F33620.96603207389
sI3400
F45203.60906153001
sI1100
F31319.24930099943
sI4300
F27931.391044267417
sI2000
F27669.69639726107
sI1400
F49784.91381728948
sI2900
F20977.008611605776
sI600
F20036.552571314962
sI4700
F27079.901045896553
sI2400
F35901.096844353124
sI400
F31180.58614793809
sI100
F22629.81373465061
sI3301
F17830.430415290324
sI3302
F30667.390199597743
sI3303
F16534.192459247774
sI4200
F26372.43916570197
sI3900
F33006.42838979269
sI1900
F18478.517020632527
sI2800
F35224.663224925556
sI1000
F31399.397063694905
sI500
F34184.124017460286
sI3305
F26533.183728173375
sI4600
F28651.035146863127
sI4500
F20957.056002860394
sI2300
F20637.986877864656
sa(dp69
I3200
F28329.72635221073
sI1600
F21816.938260585754
sI4100
F28230.998338024423
sI1800
F24328.14096781129
sI300
F23827.71363184701
sI2700
F35862.14988824977
sI3600
F32613.464785824493
sI3800
F29108.335294271885
sI1300
F34399.83651068849
sI2200
F29862.410822691956
sI900
F30133.101878384776
sI3100
F23778.731256682353
sI3304
F22470.435373975168
sI4000
F22449.001196269037
sI4400
F19816.11504592197
sI1700
F21363.200472852455
sI2600
F45810.27242834328
sI1500
F30488.42165009371
sI3500
F38323.486895050795
sI1200
F22690.00020955143
sI200
F25152.278781415076
sI2100
F26555.99989126468
sI3000
F25868.17765734376
sI3700
F30649.87532956999
sI700
F23409.852421788022
sI4800
F26638.489891069177
sI800
F31455.937640125096
sI2500
F33753.98571448947
sI3400
F45318.13538188313
sI1100
F31174.115109482602
sI4300
F27896.758066461738
sI2000
F27483.119383671812
sI1400
F49588.100791669356
sI2900
F21195.25796705054
sI600
F20027.906477973367
sI4700
F27034.96773469393
sI2400
F35954.543776623665
sI400
F31311.808862065875
sI100
F22468.205071098393
sI3301
F18024.385007125282
sI3302
F30585.221137675526
sI3303
F16258.311466225754
sI4200
F26802.476597797042
sI3900
F33337.696396775085
sI1900
F18577.917399092014
sI2800
F35136.822657503144
sI1000
F32148.059730462694
sI500
F34001.54462113333
sI3305
F26595.37554867225
sI4600
F28727.738298082713
sI4500
F20975.83988929987
sI2300
F20631.50254998987
sa(dp70
I3200
F28386.31796876478
sI1600
F21532.276779406537
sI4100
F28057.254853570772
sI1800
F24377.302359693804
sI300
F23759.48073013276
sI2700
F35504.06260498081
sI3600
F32725.317563242585
sI3800
F28639.100784413866
sI1300
F34887.23708278242
sI2200
F30010.985830134512
sI900
F30358.020722391757
sI3100
F23562.717728104984
sI3304
F22537.921007520406
sI4000
F22375.48916349491
sI4400
F19518.518036445323
sI1700
F21354.347401256564
sI2600
F45221.800822670186
sI1500
F31233.386608377383
sI3500
F38138.87157385458
sI1200
F22580.685553804007
sI200
F25138.895482505377
sI2100
F26531.46527776556
sI3000
F25947.677733005723
sI3700
F30644.6170143076
sI700
F23598.773606012244
sI4800
F26253.33680054228
sI800
F31642.50086541785
sI2500
F33291.4180689745
sI3400
F44985.19997733611
sI1100
F31546.539612969722
sI4300
F27446.035056340603
sI2000
F27263.262494294737
sI1400
F47440.465401553905
sI2900
F21315.092999157074
sI600
F20066.07423763108
sI4700
F27077.26667642368
sI2400
F37004.01757821645
sI400
F31605.081637326362
sI100
F22714.328730061032
sI3301
F17837.213089615794
sI3302
F30353.30388636851
sI3303
F16522.236552839182
sI4200
F26390.447445726724
sI3900
F33398.7077725275
sI1900
F18504.453904506703
sI2800
F34638.564166341355
sI1000
F31569.939769995213
sI500
F34147.602888326306
sI3305
F26556.869127620543
sI4600
F28723.18728490274
sI4500
F21113.308380357204
sI2300
F20766.00166125065
sa(dp71
I3200
F28627.986428157565
sI1600
F21781.45300244146
sI4100
F27934.164109082685
sI1800
F24369.365166598804
sI300
F23318.51970284354
sI2700
F35734.271262927905
sI3600
F32853.27438947851
sI3800
F29775.866748478675
sI1300
F34832.35841609642
sI2200
F29739.69289896239
sI900
F30187.901269140664
sI3100
F23801.3791747121
sI3304
F22398.427276270544
sI4000
F22635.731183713524
sI4400
F20249.17221766141
sI1700
F21015.179506897835
sI2600
F51821.94986664298
sI1500
F30611.070894235887
sI3500
F38656.88865236499
sI1200
F22779.99271210006
sI200
F25207.77019649614
sI2100
F26445.819141074026
sI3000
F25958.01036078907
sI3700
F30639.715215317272
sI700
F23387.38050735789
sI4800
F26944.8735814485
sI800
F31393.977652985555
sI2500
F33633.92550338213
sI3400
F45007.615553561176
sI1100
F31192.131581366957
sI4300
F27401.576229502683
sI2000
F27836.736025710125
sI1400
F50577.65833191946
sI2900
F21308.916852845043
sI600
F19912.454291933827
sI4700
F26913.519131102286
sI2400
F36471.98529628189
sI400
F31388.634962016615
sI100
F22573.029605555115
sI3301
F18077.208823968445
sI3302
F31158.533631757036
sI3303
F16420.355719433486
sI4200
F26440.005441994013
sI3900
F33707.35591625335
sI1900
F18435.587153067703
sI2800
F35147.23820973161
sI1000
F31415.184444925453
sI500
F34267.36800489369
sI3305
F26600.71479575249
sI4600
F28772.092712700283
sI4500
F20910.928629306698
sI2300
F20638.419221976455
sa(dp72
I3200
F28423.64604626583
sI1600
F21616.80892494517
sI4100
F28015.748420821645
sI1800
F24425.57447243078
sI300
F23764.355408637795
sI2700
F35791.88173309309
sI3600
F32508.079995608743
sI3800
F28586.82667689403
sI1300
F34620.501522580285
sI2200
F29927.13039505294
sI900
F30007.281458220285
sI3100
F23859.997924254676
sI3304
F22508.261136792356
sI4000
F22940.836465736917
sI4400
F19769.123782754617
sI1700
F21348.730361372436
sI2600
F45830.09887295628
sI1500
F30794.742450845315
sI3500
F38943.8222522415
sI1200
F22509.31237423328
sI200
F25087.63709262631
sI2100
F26434.933697698758
sI3000
F25894.690179947826
sI3700
F30505.032842077184
sI700
F23500.346982991938
sI4800
F26801.48836297768
sI800
F31095.258814434594
sI2500
F33449.10881331269
sI3400
F44713.24346307089
sI1100
F31529.342174361223
sI4300
F27294.972276779026
sI2000
F27603.917062172844
sI1400
F49575.34114740882
sI2900
F21260.36492705947
sI600
F20093.290272382328
sI4700
F26966.170479666445
sI2400
F36528.65984903822
sI400
F31265.50353843187
sI100
F22380.548084890048
sI3301
F17806.238729533514
sI3302
F30681.003786369896
sI3303
F16424.724635804927
sI4200
F26866.90928604945
sI3900
F32820.34701327104
sI1900
F18363.512536080416
sI2800
F34754.289300515135
sI1000
F31608.941132971544
sI500
F34090.42924617777
sI3305
F26863.909513255123
sI4600
F28704.488173103273
sI4500
F21119.80013831892
sI2300
F20666.61149746919
sa(dp73
I3200
F28438.763233744026
sI1600
F21155.443933025457
sI4100
F27982.35949673787
sI1800
F24427.322380024354
sI300
F23383.15142501532
sI2700
F35764.89762630994
sI3600
F32425.73134798049
sI3800
F28844.435513893004
sI1300
F34684.709863209435
sI2200
F30060.381226343707
sI900
F30588.82671046706
sI3100
F23770.956504489695
sI3304
F22365.048497839864
sI4000
F22474.518410130346
sI4400
F19974.010478532855
sI1700
F21229.79609518116
sI2600
F45748.584008592945
sI1500
F30611.39815722541
sI3500
F38462.81888077207
sI1200
F22645.710422981596
sI200
F25115.74455274631
sI2100
F26408.888928500397
sI3000
F25957.02679078524
sI3700
F30337.395771447216
sI700
F23490.530054729006
sI4800
F26626.94599562892
sI800
F31213.023328602627
sI2500
F33570.35850794307
sI3400
F45401.18705836026
sI1100
F31143.871151223353
sI4300
F27661.661810506335
sI2000
F27699.600857065892
sI1400
F50689.56591614954
sI2900
F21225.77086104428
sI600
F20451.057545604643
sI4700
F26910.339914034877
sI2400
F36381.70315424704
sI400
F31431.13674500586
sI100
F22750.611267371747
sI3301
F17889.53278434298
sI3302
F30716.405823850055
sI3303
F16574.644461729124
sI4200
F26937.375005266316
sI3900
F33736.85378568906
sI1900
F18690.003586752322
sI2800
F34552.23406113681
sI1000
F31181.681316363647
sI500
F34226.384250761585
sI3305
F26875.925841608718
sI4600
F28831.868838703056
sI4500
F21004.661085180418
sI2300
F20660.607698312928
sa(dp74
I3200
F28107.65322822565
sI1600
F21322.945508923556
sI4100
F27388.08244469242
sI1800
F24622.69304816758
sI300
F23744.22754546412
sI2700
F35601.57838227688
sI3600
F32498.1026604056
sI3800
F28853.942208047964
sI1300
F34680.39634953861
sI2200
F29879.308331862612
sI900
F30188.47614984822
sI3100
F23729.75482997876
sI3304
F22334.16298064947
sI4000
F22411.280102367633
sI4400
F19552.82952594599
sI1700
F21389.97398763766
sI2600
F45181.5060059856
sI1500
F30501.898135718053
sI3500
F38363.93168003272
sI1200
F22630.136577633064
sI200
F25100.41846145339
sI2100
F26495.962016585996
sI3000
F26006.933613124907
sI3700
F30583.61328595549
sI700
F23407.029454073036
sI4800
F26702.36012517724
sI800
F31368.18294459958
sI2500
F32264.69223493533
sI3400
F44538.3063296234
sI1100
F31315.119098268413
sI4300
F27740.04841988239
sI2000
F27671.119218585518
sI1400
F49858.10627907917
sI2900
F20662.74303581419
sI600
F20634.834808038217
sI4700
F27053.88515133199
sI2400
F36455.562951606255
sI400
F30965.773637475322
sI100
F22525.67825394354
sI3301
F17900.130896053688
sI3302
F30558.015602474614
sI3303
F16548.8411269741
sI4200
F26668.995463124873
sI3900
F33900.91814470409
sI1900
F18594.769985664294
sI2800
F35590.04607126087
sI1000
F32866.2892174584
sI500
F34352.577590115514
sI3305
F26493.80679270442
sI4600
F28643.126961306116
sI4500
F20990.761421373838
sI2300
F20643.020853188395
sa(dp75
I3200
F28210.13108096232
sI1600
F21746.7977344022
sI4100
F27858.749796989952
sI1800
F24633.738217365983
sI300
F23264.957346271698
sI2700
F35783.64295020264
sI3600
F32737.737262848303
sI3800
F28527.104748192
sI1300
F34581.165868529235
sI2200
F29854.874340055794
sI900
F30295.5442507595
sI3100
F23865.487590449826
sI3304
F22453.542980722825
sI4000
F22481.543965632714
sI4400
F19913.08955944196
sI1700
F21185.12262922227
sI2600
F45709.16759959225
sI1500
F30785.049756010325
sI3500
F38516.16001366851
sI1200
F22766.365826750647
sI200
F25078.93199799943
sI2100
F26376.83805519014
sI3000
F26181.094117164677
sI3700
F30825.88128991686
sI700
F23581.00220962943
sI4800
F26593.193056959844
sI800
F31387.687025199662
sI2500
F33589.01005853158
sI3400
F45200.29216306728
sI1100
F31287.537821964852
sI4300
F27501.358861723307
sI2000
F27622.505938121187
sI1400
F50629.16456437619
sI2900
F21141.16620433598
sI600
F20019.972672966338
sI4700
F27169.256301484438
sI2400
F35848.80347782016
sI400
F31570.859677521097
sI100
F22583.201201255244
sI3301
F17747.30557526606
sI3302
F30713.266714778005
sI3303
F16465.413501452524
sI4200
F27203.24819097497
sI3900
F33467.942933154045
sI1900
F18315.172781144956
sI2800
F35326.16013006171
sI1000
F31306.073424908573
sI500
F34077.86434192986
sI3305
F26711.981936136657
sI4600
F28947.36690022811
sI4500
F21062.229648958037
sI2300
F20504.683138243145
sa(dp76
I3200
F28712.127127945434
sI1600
F21855.892354641375
sI4100
F28179.416360063053
sI1800
F24414.56617820525
sI300
F23401.296204790742
sI2700
F35491.19741019752
sI3600
F32325.311661040672
sI3800
F28456.789522812214
sI1300
F34877.76136870342
sI2200
F29846.935940981144
sI900
F30399.11968383034
sI3100
F23646.562202703466
sI3304
F22460.347225383666
sI4000
F22579.486027567116
sI4400
F19543.293574486215
sI1700
F21421.949245676307
sI2600
F46088.409074487805
sI1500
F30689.99730381424
sI3500
F39673.683617985975
sI1200
F22439.412030085226
sI200
F25104.206914655573
sI2100
F26459.134504184236
sI3000
F26036.641838840125
sI3700
F30643.22947045238
sI700
F23425.339456587575
sI4800
F26585.064724312157
sI800
F31196.323053771397
sI2500
F33882.05221329558
sI3400
F45580.03846006007
sI1100
F31306.0948059038
sI4300
F27416.845778277762
sI2000
F27792.528937878553
sI1400
F49775.713658668676
sI2900
F21418.654255609777
sI600
F20053.52186114957
sI4700
F27112.613893567177
sI2400
F36492.38285405721
sI400
F30992.027315030595
sI100
F22556.423893152773
sI3301
F17974.282534838057
sI3302
F30596.518946100245
sI3303
F16380.660528801409
sI4200
F26715.771267358603
sI3900
F33753.22322939341
sI1900
F18489.40091704238
sI2800
F34790.839676704825
sI1000
F31283.807141553967
sI500
F34075.309098571495
sI3305
F26656.325537286302
sI4600
F28710.84235080207
sI4500
F20912.899165796887
sI2300
F20668.988998778706
sa(dp77
I3200
F28329.437993095704
sI1600
F21669.681367697667
sI4100
F28364.263020473685
sI1800
F24492.845864238123
sI300
F23449.0871228989
sI2700
F35765.35385274701
sI3600
F32907.378372643274
sI3800
F29694.335382092326
sI1300
F34372.883590602556
sI2200
F29544.55460696907
sI900
F30392.952137558408
sI3100
F23882.45053095753
sI3304
F22484.505791262123
sI4000
F22339.617299367907
sI4400
F19952.598569251863
sI1700
F21417.428941866205
sI2600
F51535.63562770888
sI1500
F30642.638702385804
sI3500
F38524.941031139075
sI1200
F22490.35329794699
sI200
F24847.041534457232
sI2100
F26441.250714613114
sI3000
F26333.54905626506
sI3700
F30782.692861172574
sI700
F23386.0362547653
sI4800
F26888.938016028842
sI800
F31289.10928865557
sI2500
F33600.71231537295
sI3400
F45364.082582555464
sI1100
F31361.609097384433
sI4300
F27450.798304568685
sI2000
F28244.86876731033
sI1400
F50063.358938651734
sI2900
F21480.81718808097
sI600
F20091.262416361184
sI4700
F27076.8967761808
sI2400
F36345.79835444645
sI400
F31404.082887751647
sI100
F22847.488440365894
sI3301
F17948.148661541527
sI3302
F30694.61915506356
sI3303
F16631.056977707212
sI4200
F26845.955622649253
sI3900
F33492.48313444613
sI1900
F18745.7145630238
sI2800
F35256.69545329858
sI1000
F31492.129279867444
sI500
F34124.20720072774
sI3305
F26455.798636389212
sI4600
F28758.640557703446
sI4500
F21067.87110706537
sI2300
F20901.967084563992
sa(dp78
I3200
F28550.356620813713
sI1600
F21319.95029998718
sI4100
F28224.774451591893
sI1800
F24560.93763746867
sI300
F23322.484773906344
sI2700
F35577.41812789113
sI3600
F32726.779422469375
sI3800
F28704.39246094979
sI1300
F34570.82425684286
sI2200
F30432.530175835233
sI900
F30696.67925616511
sI3100
F23621.477726348745
sI3304
F22392.170788406736
sI4000
F22563.13315626504
sI4400
F19568.19743519442
sI1700
F21326.54087045869
sI2600
F50187.47192785048
sI1500
F30638.79789117617
sI3500
F38614.731492116545
sI1200
F22720.001681522743
sI200
F25235.903762511094
sI2100
F26413.441266764657
sI3000
F26043.452218318318
sI3700
F30363.943485422096
sI700
F23582.58435608857
sI4800
F26942.599781766316
sI800
F31343.252559177985
sI2500
F33543.622797378106
sI3400
F45714.81166328161
sI1100
F31332.5860860695
sI4300
F27480.389803685695
sI2000
F27734.39502025543
sI1400
F50624.16211902354
sI2900
F21132.665044495054
sI600
F20142.194755619734
sI4700
F27007.673583968768
sI2400
F36599.13212108452
sI400
F31501.885873947864
sI100
F22820.286283454552
sI3301
F18042.201392796993
sI3302
F30532.58848439161
sI3303
F16390.389663480448
sI4200
F26621.99441435355
sI3900
F33688.08123326332
sI1900
F18660.614606230898
sI2800
F35363.16958609236
sI1000
F31681.18510358157
sI500
F33981.2827560379
sI3305
F26680.96032213905
sI4600
F28752.5037084085
sI4500
F21031.93397671405
sI2300
F20673.456079250922
sa(dp79
I3200
F28363.518700166394
sI1600
F21693.819987726998
sI4100
F27925.82268980645
sI1800
F24367.727386951334
sI300
F23768.31284855817
sI2700
F35859.762812900466
sI3600
F32457.51200187228
sI3800
F29123.589802964645
sI1300
F34992.598564506596
sI2200
F29894.40722901457
sI900
F30350.3678815074
sI3100
F23593.307038342988
sI3304
F22417.60083713612
sI4000
F22474.532039344926
sI4400
F19288.92634200987
sI1700
F21499.48626918822
sI2600
F45784.381482423945
sI1500
F30557.129681491107
sI3500
F38298.19324358209
sI1200
F22577.600929358036
sI200
F25159.08445080019
sI2100
F26456.341591054937
sI3000
F25989.603562383345
sI3700
F30775.372963617516
sI700
F23434.045349615448
sI4800
F26775.475577373658
sI800
F31429.298272275653
sI2500
F33188.92465170071
sI3400
F45694.49920330847
sI1100
F31702.59803681011
sI4300
F27415.99217049541
sI2000
F27471.28109099047
sI1400
F50124.027530643725
sI2900
F21277.415726977484
sI600
F20075.651100650917
sI4700
F26999.9247368213
sI2400
F36272.55856715336
sI400
F31594.548211760713
sI100
F22639.375242589773
sI3301
F18154.80028391262
sI3302
F30557.69165799717
sI3303
F16402.378683510913
sI4200
F26645.70485880095
sI3900
F33397.255382055526
sI1900
F18851.612442875692
sI2800
F35363.958338013836
sI1000
F31362.340684903436
sI500
F33863.82101296919
sI3305
F26629.71791577577
sI4600
F28686.928751821884
sI4500
F21027.453815203757
sI2300
F20855.82322248115
sa(dp80
I3200
F28153.923664460264
sI1600
F21617.678966231862
sI4100
F28583.13123550354
sI1800
F24413.59471855578
sI300
F23369.26346197328
sI2700
F35715.90099792616
sI3600
F32587.880245220676
sI3800
F28827.95546841702
sI1300
F34618.75838808703
sI2200
F29729.9442253347
sI900
F30191.614101908046
sI3100
F23726.25283973685
sI3304
F22366.838727598526
sI4000
F22468.9951154058
sI4400
F19539.039744632166
sI1700
F21414.003217899684
sI2600
F46019.8485839706
sI1500
F30411.618848856033
sI3500
F38430.47056250704
sI1200
F22712.615065693455
sI200
F25114.700685083346
sI2100
F26376.398167614087
sI3000
F25747.908837517083
sI3700
F30598.306096580756
sI700
F23534.885906870648
sI4800
F26667.904563710275
sI800
F31554.808560292186
sI2500
F33166.777722971216
sI3400
F45132.65721072259
sI1100
F31176.321289054675
sI4300
F27325.5447754202
sI2000
F27701.558167876432
sI1400
F49785.833565698566
sI2900
F21353.731378329336
sI600
F20023.05608049532
sI4700
F27310.07016879823
sI2400
F36818.04533075117
sI400
F31174.657571898453
sI100
F22571.50693671968
sI3301
F17772.040429391403
sI3302
F30848.947701496858
sI3303
F16389.040830732938
sI4200
F26743.56692648638
sI3900
F33862.599440925835
sI1900
F18690.490177306783
sI2800
F35252.283509581786
sI1000
F31411.154767673826
sI500
F34034.93962763802
sI3305
F26862.91603488244
sI4600
F28633.678040901756
sI4500
F21079.85609548924
sI2300
F20678.620778916993
sa(dp81
I3200
F28279.540948581176
sI1600
F21206.67787478211
sI4100
F27894.79457224448
sI1800
F24496.33896662596
sI300
F23737.401969146074
sI2700
F35910.62993581701
sI3600
F33060.77002034534
sI3800
F28852.554369331185
sI1300
F34786.3768991446
sI2200
F29739.101468508896
sI900
F30135.42727412235
sI3100
F23807.16582293654
sI3304
F22811.85655332573
sI4000
F22913.452921642496
sI4400
F19574.894163576566
sI1700
F21302.485782125506
sI2600
F45943.17674312995
sI1500
F30470.97633783054
sI3500
F39407.536336869285
sI1200
F22615.573466037586
sI200
F25164.46825335192
sI2100
F26343.630443551985
sI3000
F25809.46284814664
sI3700
F30482.207126293073
sI700
F23179.6672286768
sI4800
F26674.06335908269
sI800
F31912.6440685996
sI2500
F32589.912234239237
sI3400
F44887.93719080454
sI1100
F31163.803742728225
sI4300
F27546.097586877124
sI2000
F27525.47682403416
sI1400
F50277.92587771754
sI2900
F21298.31340111349
sI600
F20242.742595532527
sI4700
F27319.53188479131
sI2400
F36647.09340294519
sI400
F31626.465749461106
sI100
F22725.972426050987
sI3301
F18014.75563662029
sI3302
F31491.844240695416
sI3303
F16343.285643394353
sI4200
F26603.03951267177
sI3900
F32814.321377904125
sI1900
F18722.59348632334
sI2800
F34901.70416770839
sI1000
F31363.607809205176
sI500
F34434.449797682886
sI3305
F26674.019966140142
sI4600
F28841.874860963504
sI4500
F20992.919751133126
sI2300
F20668.14128086784
sa(dp82
I3200
F28042.68305855371
sI1600
F21493.9824548959
sI4100
F27866.20155681906
sI1800
F24345.203159765137
sI300
F23479.118299200934
sI2700
F35871.897148944045
sI3600
F32744.10744213865
sI3800
F28785.418320085944
sI1300
F34090.85445311184
sI2200
F29728.512823065
sI900
F30349.421059276785
sI3100
F23688.882448231772
sI3304
F22295.479476675242
sI4000
F22569.513609494985
sI4400
F19809.095780000676
sI1700
F21296.172348869586
sI2600
F45418.62811496062
sI1500
F30756.129304112084
sI3500
F38883.22494654503
sI1200
F22778.1511887049
sI200
F25057.694395868737
sI2100
F26132.510215743332
sI3000
F26064.423137998732
sI3700
F30165.82453024367
sI700
F23590.424030608785
sI4800
F26923.954435964428
sI800
F31520.116285062133
sI2500
F33418.63907619443
sI3400
F45006.55771884187
sI1100
F31070.738324147675
sI4300
F27707.39373797435
sI2000
F27593.813165912055
sI1400
F49699.70013902049
sI2900
F21190.449080601564
sI600
F20084.70465163715
sI4700
F27216.2798565319
sI2400
F36681.31587766977
sI400
F31220.860927223628
sI100
F22675.11165426965
sI3301
F18037.220013731876
sI3302
F30065.496826503968
sI3303
F16552.701957022346
sI4200
F26711.06094287443
sI3900
F33078.30233661467
sI1900
F18381.256340534554
sI2800
F36045.72853953727
sI1000
F31827.693992565262
sI500
F34402.0813545904
sI3305
F26240.782918977216
sI4600
F28705.308760667016
sI4500
F21072.47464919218
sI2300
F20670.25111906146
sa(dp83
I3200
F28302.94944115912
sI1600
F21701.28170323096
sI4100
F27892.22048768576
sI1800
F24378.618592902945
sI300
F23783.112713605005
sI2700
F35725.84809621929
sI3600
F32742.101869893053
sI3800
F28571.506654344368
sI1300
F35050.9161839182
sI2200
F30158.341084666452
sI900
F30109.396736945
sI3100
F24058.647394868793
sI3304
F22421.31313170572
sI4000
F22618.232736181468
sI4400
F19975.78229501328
sI1700
F21318.776944630776
sI2600
F45636.17158802234
sI1500
F30743.646317960287
sI3500
F38414.92293532549
sI1200
F22745.11900560472
sI200
F25086.538942887768
sI2100
F26654.869395194815
sI3000
F26072.676205506676
sI3700
F30314.02170058148
sI700
F23595.998589934097
sI4800
F26619.698074597174
sI800
F31726.693664262213
sI2500
F33535.671872258674
sI3400
F45295.3874838046
sI1100
F31315.11407362412
sI4300
F27899.345709491332
sI2000
F27545.480629840848
sI1400
F49805.952150693854
sI2900
F21296.354510408724
sI600
F19981.666006996453
sI4700
F27027.50692077551
sI2400
F36653.332052060454
sI400
F31352.159641168004
sI100
F22327.60743071755
sI3301
F17728.358616454145
sI3302
F30304.78520120726
sI3303
F16461.544951483866
sI4200
F26440.629366314493
sI3900
F33617.046370952936
sI1900
F18500.157171693496
sI2800
F35294.29958168921
sI1000
F31283.07192144492
sI500
F34285.32417730444
sI3305
F26726.157796707626
sI4600
F28729.951466230603
sI4500
F20999.62699789032
sI2300
F20700.924063131937
sa(dp84
I3200
F27911.87170901923
sI1600
F21959.989625472863
sI4100
F27959.583527328075
sI1800
F24330.31335956059
sI300
F23773.024839211685
sI2700
F36104.757302006525
sI3600
F32822.457978217084
sI3800
F28694.759740994014
sI1300
F34393.11462024744
sI2200
F29622.968400052814
sI900
F30244.441058558517
sI3100
F23580.333062168003
sI3304
F22349.86720884829
sI4000
F22453.80735854066
sI4400
F19353.714411581772
sI1700
F21426.965540557176
sI2600
F46176.15806782205
sI1500
F30582.581563570217
sI3500
F38409.70998212856
sI1200
F22561.04132001711
sI200
F25231.10394681361
sI2100
F26451.70628498966
sI3000
F26015.273290988647
sI3700
F30588.390518563378
sI700
F23409.468195902347
sI4800
F26533.168332041427
sI800
F31489.476210870984
sI2500
F33117.41184767118
sI3400
F45325.594075164045
sI1100
F32238.81460131787
sI4300
F28215.670692571435
sI2000
F27629.410690364504
sI1400
F49284.02433332976
sI2900
F21732.90180147001
sI600
F19983.628269244575
sI4700
F27093.69976160402
sI2400
F36285.3426623322
sI400
F31171.38814203782
sI100
F22526.53405254994
sI3301
F17798.968348826595
sI3302
F30647.92653592991
sI3303
F16443.457249106443
sI4200
F26678.995758314322
sI3900
F33690.08722681733
sI1900
F18472.231802103033
sI2800
F35016.781502390666
sI1000
F31393.41329002933
sI500
F33917.35944912276
sI3305
F26345.714548311946
sI4600
F28764.589990660672
sI4500
F21071.282373667585
sI2300
F20808.39488625745
sa(dp85
I3200
F28820.13466324469
sI1600
F21402.826506927904
sI4100
F27970.77364982518
sI1800
F24403.429220088547
sI300
F23839.716940630544
sI2700
F35795.142404020386
sI3600
F32672.44926791684
sI3800
F28374.659143009732
sI1300
F34563.77483531186
sI2200
F30389.175538677093
sI900
F30086.960448773236
sI3100
F24009.600843331948
sI3304
F22279.900484914844
sI4000
F22432.06323306908
sI4400
F19184.70283547799
sI1700
F21258.101965694426
sI2600
F45610.90270065216
sI1500
F30577.245292541826
sI3500
F38226.46788232711
sI1200
F22643.50393771892
sI200
F25063.78039025619
sI2100
F26582.394623615266
sI3000
F26012.35061939845
sI3700
F30679.14226938573
sI700
F23603.30109693453
sI4800
F26917.186126301753
sI800
F31593.19688772468
sI2500
F33453.20982842526
sI3400
F45058.346147690536
sI1100
F31401.90177151646
sI4300
F27348.72944836721
sI2000
F27458.753971099108
sI1400
F50305.887525028826
sI2900
F21314.458101575754
sI600
F19971.482105246876
sI4700
F27038.516653867642
sI2400
F36521.05602699513
sI400
F30970.131522520005
sI100
F22494.702565957017
sI3301
F18180.602613102885
sI3302
F30507.340616526402
sI3303
F16428.65395672248
sI4200
F26178.802613490458
sI3900
F33577.716993256545
sI1900
F18518.188209716278
sI2800
F34729.93596954429
sI1000
F32022.462751179406
sI500
F34242.16009007537
sI3305
F26494.21646831619
sI4600
F28759.633203130943
sI4500
F20991.54621795882
sI2300
F20510.07615542211
sa(dp86
I3200
F28038.151066476737
sI1600
F21850.2057678128
sI4100
F28071.20144649571
sI1800
F24319.500753868375
sI300
F23764.472183508886
sI2700
F35702.93837639545
sI3600
F32462.08807917387
sI3800
F28443.05611643085
sI1300
F34625.74120040388
sI2200
F29568.734863205733
sI900
F30348.358482313823
sI3100
F23535.23294949019
sI3304
F22527.796582160874
sI4000
F22444.470511561514
sI4400
F19820.460296265243
sI1700
F21439.957088560135
sI2600
F45888.55021779781
sI1500
F30744.951061142277
sI3500
F38869.797057772725
sI1200
F22522.849620274224
sI200
F25110.52361944955
sI2100
F26502.94455414269
sI3000
F26027.803173510616
sI3700
F30663.09600027846
sI700
F23859.969871387188
sI4800
F26648.62007540129
sI800
F31544.60799240288
sI2500
F33645.6860903114
sI3400
F45055.63218737593
sI1100
F31608.121567593953
sI4300
F27550.875929120226
sI2000
F27523.574093195468
sI1400
F49125.9753629203
sI2900
F21113.600664267982
sI600
F20042.046940456716
sI4700
F27088.327141597034
sI2400
F35797.76237089822
sI400
F31370.911077780824
sI100
F22713.191631336755
sI3301
F18044.93934688326
sI3302
F30683.832769070043
sI3303
F16411.81619109476
sI4200
F26162.42545903668
sI3900
F33566.1680831873
sI1900
F18525.26901365845
sI2800
F35131.12160579032
sI1000
F31223.08986493232
sI500
F34282.18134959717
sI3305
F26810.944129899694
sI4600
F28777.35934215636
sI4500
F20951.593955322078
sI2300
F20985.881183074198
sa(dp87
I3200
F28170.730918946592
sI1600
F21429.710938387223
sI4100
F27902.95096481637
sI1800
F24467.04009294798
sI300
F23773.282327942085
sI2700
F35756.24281883481
sI3600
F33020.74354134056
sI3800
F28862.708899475743
sI1300
F34744.494854238736
sI2200
F29810.159528843527
sI900
F30228.69256299437
sI3100
F23847.176245937077
sI3304
F22393.639434856508
sI4000
F22376.733984154424
sI4400
F19577.601732877803
sI1700
F21340.316515392908
sI2600
F45791.483611564465
sI1500
F30470.733637738296
sI3500
F38650.57555821846
sI1200
F22851.153874671247
sI200
F25063.78896809446
sI2100
F26616.171885846965
sI3000
F25969.62354614715
sI3700
F30405.576503128985
sI700
F23593.17063270777
sI4800
F26900.735771997737
sI800
F31455.775739159923
sI2500
F33648.871598428654
sI3400
F45227.77589077694
sI1100
F31993.223376286434
sI4300
F27598.493547664584
sI2000
F27627.774548501973
sI1400
F49636.27488313566
sI2900
F21203.327996050364
sI600
F20311.284306132842
sI4700
F27141.13039577405
sI2400
F36223.5464648774
sI400
F31276.114718701087
sI100
F22580.420009587706
sI3301
F17857.23094623688
sI3302
F30634.236878906293
sI3303
F16364.27686738296
sI4200
F27502.08066215825
sI3900
F33502.34858140288
sI1900
F18543.144080325357
sI2800
F34369.84068125167
sI1000
F31475.41681033293
sI500
F34242.903974323344
sI3305
F26836.267251478534
sI4600
F28763.451989876055
sI4500
F20906.78784063353
sI2300
F20888.23915853128
sa(dp88
I3200
F28313.76448265468
sI1600
F21717.02506461773
sI4100
F28119.323592234905
sI1800
F24255.144352712385
sI300
F23760.292434505343
sI2700
F35767.71461817638
sI3600
F33607.379250742946
sI3800
F28810.744681395237
sI1300
F34453.549790760815
sI2200
F30542.938214336227
sI900
F30485.546138826838
sI3100
F23762.69268425329
sI3304
F22502.617904818027
sI4000
F22427.08551385872
sI4400
F19111.670548685943
sI1700
F21304.29217572877
sI2600
F51699.995701295105
sI1500
F30660.980862861095
sI3500
F38729.1757411498
sI1200
F22565.465792673214
sI200
F25200.219952377378
sI2100
F26381.72155238296
sI3000
F25890.334285561778
sI3700
F30734.206602231217
sI700
F23522.15698965472
sI4800
F26491.271980438392
sI800
F31888.70852137786
sI2500
F33044.49111062239
sI3400
F45357.059648177215
sI1100
F31265.413409374756
sI4300
F27561.83888872527
sI2000
F27426.50188961587
sI1400
F49981.31549981519
sI2900
F21144.9410544625
sI600
F19986.808107343666
sI4700
F27091.888444489996
sI2400
F36147.90983045116
sI400
F30930.54453109766
sI100
F22243.06912098036
sI3301
F18138.01551313572
sI3302
F30862.66223950332
sI3303
F16300.75343134166
sI4200
F26412.94721360924
sI3900
F33457.464009417745
sI1900
F18477.653604943724
sI2800
F34763.129197295566
sI1000
F31333.559749597825
sI500
F33848.63271981016
sI3305
F26743.855200584025
sI4600
F29089.739078725153
sI4500
F21034.61202830153
sI2300
F20856.911981735426
sa(dp89
I3200
F27539.205382844964
sI1600
F21833.591995632556
sI4100
F28338.18325096182
sI1800
F24567.332857318805
sI300
F23470.538085113923
sI2700
F35894.24042070728
sI3600
F32641.249899992657
sI3800
F28860.580512160253
sI1300
F34367.23922831721
sI2200
F29785.72632180745
sI900
F30184.25024668533
sI3100
F23769.293582702296
sI3304
F22511.477773108847
sI4000
F22100.58719012297
sI4400
F19491.99502627202
sI1700
F21296.81247688569
sI2600
F45464.37773511416
sI1500
F30541.60466468367
sI3500
F38690.833519348445
sI1200
F22638.199557339747
sI200
F25101.348755631003
sI2100
F26619.866178885248
sI3000
F26211.141774168347
sI3700
F30460.383894440176
sI700
F23415.37560276973
sI4800
F26874.482396029896
sI800
F31121.63655008264
sI2500
F33594.16638792724
sI3400
F44675.82733327167
sI1100
F31507.5227645865
sI4300
F28021.07521978224
sI2000
F27514.587884138557
sI1400
F51578.67757628613
sI2900
F21728.852366895346
sI600
F19680.161426284736
sI4700
F27342.94632202552
sI2400
F36288.352199214016
sI400
F30756.710499561086
sI100
F22472.423118157258
sI3301
F18102.85153193144
sI3302
F30741.540646207482
sI3303
F16558.764030865994
sI4200
F26637.939013008745
sI3900
F33563.39417592548
sI1900
F18551.23282857957
sI2800
F36042.32486014863
sI1000
F31186.28394188584
sI500
F34542.400112953364
sI3305
F26743.053305641068
sI4600
F28842.785151569664
sI4500
F21004.174151522402
sI2300
F20889.859319205934
sa(dp90
I3200
F28325.875855154918
sI1600
F21757.140025221674
sI4100
F27901.880160534136
sI1800
F24125.93382400854
sI300
F23451.52811462045
sI2700
F35820.34573698894
sI3600
F32304.8943075003
sI3800
F28704.893114100116
sI1300
F34887.550698187384
sI2200
F30141.153778240772
sI900
F30180.529945161463
sI3100
F23779.298558544393
sI3304
F22376.276830895316
sI4000
F22476.16834234199
sI4400
F19967.983727819344
sI1700
F21296.16663521182
sI2600
F45780.24904636351
sI1500
F30814.84128925902
sI3500
F38371.66203549447
sI1200
F22548.9636411012
sI200
F25032.002127147305
sI2100
F26302.13593855222
sI3000
F26680.133908236865
sI3700
F30667.328393806016
sI700
F23938.009097886028
sI4800
F26693.03543860936
sI800
F31515.51981994362
sI2500
F33068.30857775255
sI3400
F45593.752531982864
sI1100
F31417.122734845405
sI4300
F27172.842244080737
sI2000
F27597.227935648934
sI1400
F50189.95760649285
sI2900
F21226.22553551936
sI600
F19953.960077384843
sI4700
F27187.357513488383
sI2400
F35721.5097066878
sI400
F31599.880314002276
sI100
F22565.518877697414
sI3301
F17833.12500282862
sI3302
F30617.59386955894
sI3303
F16447.987133836454
sI4200
F26646.982602580563
sI3900
F33553.71996583362
sI1900
F18458.738786366972
sI2800
F35440.989461640944
sI1000
F31252.431393153183
sI500
F34248.178791281425
sI3305
F26637.27985260539
sI4600
F28755.31427853387
sI4500
F20980.84203589033
sI2300
F20832.45141687942
sa(dp91
I3200
F28454.926495620763
sI1600
F21728.14589365755
sI4100
F27885.500669765297
sI1800
F24314.7841542824
sI300
F23743.28584077852
sI2700
F35633.34688984242
sI3600
F33123.69489764676
sI3800
F28902.92978521098
sI1300
F34363.4947370548
sI2200
F29803.190055072915
sI900
F30054.240755547682
sI3100
F23791.12774510804
sI3304
F22397.200831124905
sI4000
F22376.459733242224
sI4400
F19566.568968071675
sI1700
F21265.905274423905
sI2600
F45677.11866155821
sI1500
F30658.616468434906
sI3500
F37940.40854585037
sI1200
F22771.118063360424
sI200
F25087.376554887556
sI2100
F26428.143312981138
sI3000
F26393.839147005867
sI3700
F30697.499808239947
sI700
F23501.622415215556
sI4800
F26820.7308325366
sI800
F32093.108146121656
sI2500
F33441.741810319145
sI3400
F44963.93683927607
sI1100
F31139.04747342134
sI4300
F27471.038607084898
sI2000
F28266.73520566026
sI1400
F49961.84260639875
sI2900
F21229.1234815331
sI600
F20081.559862416314
sI4700
F26637.793375880847
sI2400
F35948.08501931531
sI400
F31755.258712440213
sI100
F22411.813020117468
sI3301
F17845.0025893163
sI3302
F30674.51918029425
sI3303
F16481.792696678767
sI4200
F26390.88632987014
sI3900
F33818.262999632854
sI1900
F18494.971425596545
sI2800
F35245.372928202276
sI1000
F31573.11590993385
sI500
F34236.98721070758
sI3305
F26625.67794209483
sI4600
F28745.933901124296
sI4500
F21027.30903519131
sI2300
F20661.11030250829
sa(dp92
I3200
F28281.78802934497
sI1600
F21155.840074608084
sI4100
F28051.66822240689
sI1800
F24637.860890112726
sI300
F23386.122872811455
sI2700
F35581.85917067394
sI3600
F32817.57415091394
sI3800
F28208.77821833977
sI1300
F35236.265798292174
sI2200
F30321.302380285037
sI900
F30660.33632892515
sI3100
F23821.880339397478
sI3304
F22598.91722610741
sI4000
F22329.044379746938
sI4400
F19767.410618116854
sI1700
F21372.516631724022
sI2600
F52366.32196904509
sI1500
F30599.77284073433
sI3500
F38646.32638484766
sI1200
F22345.409063513456
sI200
F25056.73667036823
sI2100
F26384.31741396355
sI3000
F26059.46518786125
sI3700
F30692.49196621589
sI700
F23941.047005753884
sI4800
F26466.868576583314
sI800
F31668.826052210043
sI2500
F32871.72544370865
sI3400
F45272.307974688665
sI1100
F31332.477178476314
sI4300
F27200.81789590421
sI2000
F27434.24894418249
sI1400
F50031.81864328243
sI2900
F21359.553034005887
sI600
F20064.799958948006
sI4700
F27028.721509831685
sI2400
F36106.665125663596
sI400
F31302.92053870411
sI100
F22511.913347833222
sI3301
F17831.24352499848
sI3302
F30304.07623729028
sI3303
F16538.677464512202
sI4200
F26601.890626882363
sI3900
F32885.2896208495
sI1900
F18596.069719796647
sI2800
F35036.669862298404
sI1000
F31760.722664801375
sI500
F33932.72633859246
sI3305
F26536.282255164322
sI4600
F28996.057335842484
sI4500
F21110.249846043658
sI2300
F20758.081546846734
sa(dp93
I3200
F28140.32056814985
sI1600
F21533.075262600254
sI4100
F27936.707843223016
sI1800
F24646.313684625962
sI300
F23367.594814579705
sI2700
F35669.12093968866
sI3600
F32571.376913819222
sI3800
F28889.614614289567
sI1300
F34625.2524722519
sI2200
F28966.260235142214
sI900
F30135.427694255675
sI3100
F23794.34414677798
sI3304
F22377.122998691095
sI4000
F22530.341124732233
sI4400
F19837.40923947979
sI1700
F21297.333622672777
sI2600
F44738.14881962767
sI1500
F30625.23023355625
sI3500
F38722.480717912564
sI1200
F22773.214284530615
sI200
F25159.683606935127
sI2100
F26752.673338119544
sI3000
F25944.022614305275
sI3700
F30626.198414042323
sI700
F23506.505184888716
sI4800
F26683.344572527025
sI800
F31539.017752157957
sI2500
F33441.42169560885
sI3400
F45234.20567097531
sI1100
F31600.83280847752
sI4300
F27502.74842573598
sI2000
F27831.164155089984
sI1400
F50306.6293280656
sI2900
F21207.695870258067
sI600
F19912.716393141145
sI4700
F26970.98062575241
sI2400
F36367.91779321758
sI400
F31419.593149482444
sI100
F22468.88084050199
sI3301
F18005.131805644985
sI3302
F30154.894226160068
sI3303
F16376.900246762018
sI4200
F26936.85951394853
sI3900
F33680.96267268599
sI1900
F18676.044087109643
sI2800
F35062.0328777028
sI1000
F31219.61979080145
sI500
F34191.47064834583
sI3305
F26571.741444774856
sI4600
F28805.920242788605
sI4500
F21019.1287211241
sI2300
F20421.797416393874
sa(dp94
I3200
F28648.07090121807
sI1600
F21585.45175690703
sI4100
F27961.810696614575
sI1800
F24384.239657858077
sI300
F23378.416338704305
sI2700
F35561.780404291785
sI3600
F32975.84199229452
sI3800
F28878.92893832591
sI1300
F34737.767227031385
sI2200
F29999.172423076667
sI900
F30015.51466972071
sI3100
F23839.764674411566
sI3304
F22553.92091226972
sI4000
F22404.811231933087
sI4400
F19837.47342608458
sI1700
F21189.327758159365
sI2600
F45720.54373486899
sI1500
F30931.16359656534
sI3500
F39570.85772014518
sI1200
F22513.004748408686
sI200
F25110.432952472
sI2100
F26689.67672953975
sI3000
F26067.548724515553
sI3700
F30880.681515756114
sI700
F23550.86233018698
sI4800
F26690.616262357416
sI800
F32001.25767399066
sI2500
F33467.057872237405
sI3400
F44937.90266332585
sI1100
F31674.27164316615
sI4300
F27580.511535398342
sI2000
F27355.091594796115
sI1400
F50825.887741285835
sI2900
F21264.548263330216
sI600
F20561.638044822437
sI4700
F27051.72873745913
sI2400
F36428.57987595861
sI400
F31373.11943558949
sI100
F22483.135917938656
sI3301
F17945.953120591275
sI3302
F30795.54638044674
sI3303
F16359.201882704932
sI4200
F26609.79377688211
sI3900
F33611.145184251785
sI1900
F18402.777255534802
sI2800
F34774.09432047932
sI1000
F31578.358516324708
sI500
F33933.7987642789
sI3305
F26829.1081053646
sI4600
F28688.844847161436
sI4500
F20978.175302811967
sI2300
F20873.981288362535
sa(dp95
I3200
F28295.842268525208
sI1600
F21822.353117472856
sI4100
F27804.944905606284
sI1800
F24333.641229729084
sI300
F23532.946924291584
sI2700
F35728.278768779186
sI3600
F33080.39436271944
sI3800
F29726.035553549595
sI1300
F34711.04476582141
sI2200
F30132.064170769547
sI900
F30009.806670363472
sI3100
F24037.60236670021
sI3304
F22548.666587684733
sI4000
F22338.240519758307
sI4400
F19604.408630181108
sI1700
F21738.27276463844
sI2600
F46253.70455277674
sI1500
F30608.834173460855
sI3500
F38543.91702826767
sI1200
F22404.198334688866
sI200
F25137.56615963683
sI2100
F26533.80679197681
sI3000
F26146.37235791205
sI3700
F30757.12291811711
sI700
F23639.79412228274
sI4800
F26653.249420737695
sI800
F31280.843482504628
sI2500
F33417.40662981856
sI3400
F44495.91195129936
sI1100
F31416.337100120116
sI4300
F27567.835180168673
sI2000
F27710.601059018387
sI1400
F51049.671446147164
sI2900
F21385.942058234355
sI600
F20152.759836613764
sI4700
F27056.22449193209
sI2400
F36855.72557945042
sI400
F31145.716613461664
sI100
F22517.010968114988
sI3301
F17893.50024548411
sI3302
F30829.075861851306
sI3303
F16562.623851623517
sI4200
F26465.55869666686
sI3900
F33465.37303178373
sI1900
F18321.31773756635
sI2800
F35639.45370501686
sI1000
F31575.753644417953
sI500
F34069.118774795774
sI3305
F26874.337019772156
sI4600
F28672.225719665406
sI4500
F21054.398595508694
sI2300
F20792.692230545937
sa(dp96
I3200
F28312.327757216946
sI1600
F21681.801793538063
sI4100
F28003.125698883767
sI1800
F24197.31241374625
sI300
F23495.04843621382
sI2700
F35884.32889776474
sI3600
F32723.163887845094
sI3800
F28728.12795049938
sI1300
F34833.958362694706
sI2200
F30233.613870673977
sI900
F29729.924147706537
sI3100
F23774.138146910285
sI3304
F22526.300292053125
sI4000
F22565.724284539127
sI4400
F19677.202576893786
sI1700
F21119.575752045108
sI2600
F51388.18948916623
sI1500
F30288.116251205505
sI3500
F38361.806580489814
sI1200
F22540.221809842045
sI200
F25113.427845776732
sI2100
F26652.82550686834
sI3000
F25987.25398749669
sI3700
F30247.504443811995
sI700
F23559.127685707772
sI4800
F26500.01727994446
sI800
F31493.08158203786
sI2500
F33590.527240638505
sI3400
F45263.906833968074
sI1100
F31380.082799047792
sI4300
F27513.71612414325
sI2000
F27531.78958446983
sI1400
F50799.65848244681
sI2900
F21179.26079298866
sI600
F19938.62415691165
sI4700
F27155.675296207995
sI2400
F36859.46283779717
sI400
F31321.908621698163
sI100
F22483.463067473465
sI3301
F18065.425559915773
sI3302
F30864.829564592426
sI3303
F16439.696056856028
sI4200
F26591.308484291505
sI3900
F33491.39378069848
sI1900
F18413.850264181663
sI2800
F34997.762687860406
sI1000
F31483.78047595973
sI500
F34211.28184507941
sI3305
F26762.888571081327
sI4600
F29128.428229243185
sI4500
F21027.64428573883
sI2300
F20816.348283816562
sa(dp97
I3200
F28325.266864262623
sI1600
F21348.029715591732
sI4100
F27936.592333057888
sI1800
F24446.609538074426
sI300
F23448.833237919007
sI2700
F35789.5867167135
sI3600
F32152.652213187164
sI3800
F28874.686808965107
sI1300
F34692.86422135948
sI2200
F29920.25732188505
sI900
F30093.14384090274
sI3100
F23773.086108379335
sI3304
F21849.5950689899
sI4000
F22379.723046270232
sI4400
F19844.13979177469
sI1700
F20947.641168612387
sI2600
F46590.957254572284
sI1500
F30632.3616741682
sI3500
F38112.70645981047
sI1200
F22628.958740679114
sI200
F25224.699650527833
sI2100
F26549.484739010426
sI3000
F26058.47974077244
sI3700
F30686.979679266733
sI700
F23174.70218391805
sI4800
F26855.44659452573
sI800
F31510.005561310354
sI2500
F33560.21220822457
sI3400
F45148.84110297462
sI1100
F31195.400483873163
sI4300
F27819.29875817036
sI2000
F27625.684274472413
sI1400
F49615.98308980493
sI2900
F21298.186467903066
sI600
F20115.900872758382
sI4700
F27355.144368121077
sI2400
F36150.943639355675
sI400
F31350.944224008934
sI100
F22554.516379210094
sI3301
F17859.00877475767
sI3302
F30774.5161715184
sI3303
F16562.520526857013
sI4200
F26588.75111631621
sI3900
F33317.20635088973
sI1900
F18251.100315470314
sI2800
F34987.59845013386
sI1000
F31271.83156877997
sI500
F34097.77066344173
sI3305
F26795.17808064662
sI4600
F28496.40295467677
sI4500
F21010.668904787533
sI2300
F20664.46631059993
sa(dp98
I3200
F28090.709244841084
sI1600
F21597.6378368911
sI4100
F27876.10873212146
sI1800
F24574.005950376537
sI300
F23694.67641862927
sI2700
F35849.63592221544
sI3600
F32852.24843163968
sI3800
F28808.967860535722
sI1300
F34278.672351889756
sI2200
F29671.663983457704
sI900
F30626.498787718276
sI3100
F24196.643127304662
sI3304
F22527.883488195323
sI4000
F22478.31597472731
sI4400
F19728.686492221255
sI1700
F21043.047809722786
sI2600
F46066.43114394718
sI1500
F30513.389136231362
sI3500
F38487.71375005786
sI1200
F22847.839170539446
sI200
F25151.372502598682
sI2100
F26499.681753772562
sI3000
F26061.80710950329
sI3700
F30290.832513292888
sI700
F23436.060730899528
sI4800
F26701.303676613083
sI800
F32635.747618913912
sI2500
F33620.999236287884
sI3400
F45095.072518282206
sI1100
F31308.15483057318
sI4300
F27456.53885130867
sI2000
F27630.616591029648
sI1400
F50304.633509098974
sI2900
F21082.574974983876
sI600
F20155.798004147473
sI4700
F27152.22510141068
sI2400
F36303.029890454774
sI400
F31721.32069581087
sI100
F22534.662832489143
sI3301
F18247.867879340367
sI3302
F30723.316509244352
sI3303
F16445.55979144965
sI4200
F27042.227724579712
sI3900
F33591.451868444485
sI1900
F18525.459256164348
sI2800
F35256.14118006703
sI1000
F31630.85608425703
sI500
F34634.574604529254
sI3305
F26461.06009351751
sI4600
F28873.65063411381
sI4500
F20968.946900905743
sI2300
F20719.735334860805
sa(dp99
I3200
F28201.1586747225
sI1600
F21516.573265231145
sI4100
F27961.507530153904
sI1800
F24325.074860206314
sI300
F23756.22553060531
sI2700
F35621.083920955854
sI3600
F33158.49073360142
sI3800
F28893.69685932863
sI1300
F34519.214310087096
sI2200
F29528.337337026398
sI900
F30108.75731260129
sI3100
F23636.34965783274
sI3304
F22432.398648954797
sI4000
F22395.131896323837
sI4400
F19898.964381451082
sI1700
F21312.49536420057
sI2600
F50787.99355919893
sI1500
F30423.12089167921
sI3500
F38262.38511597313
sI1200
F22555.005040744454
sI200
F25160.73912191182
sI2100
F26344.830557029738
sI3000
F26087.065873634117
sI3700
F30883.007031072342
sI700
F23477.444894871245
sI4800
F26618.4314190088
sI800
F31751.342098724752
sI2500
F33896.18260949294
sI3400
F45144.8263686946
sI1100
F31326.440715261317
sI4300
F27367.05412411335
sI2000
F27866.788264805033
sI1400
F50458.1450349172
sI2900
F21282.8570216677
sI600
F19475.853027754365
sI4700
F27749.074744455083
sI2400
F36240.893428144635
sI400
F31402.170465677897
sI100
F22564.48340519357
sI3301
F17974.60328749358
sI3302
F30467.58506138015
sI3303
F16392.04329023628
sI4200
F26341.65960879903
sI3900
F32651.366953909685
sI1900
F18373.693290605006
sI2800
F35605.5472297126
sI1000
F31605.008405192606
sI500
F34048.78788393472
sI3305
F26469.83007577117
sI4600
F28820.403366417326
sI4500
F20876.896364528675
sI2300
F20629.31379485734
sa(dp100
I3200
F28148.556288126285
sI1600
F21431.70605642698
sI4100
F28101.062963073415
sI1800
F24364.27066962148
sI300
F23492.849875918164
sI2700
F35766.859960245085
sI3600
F32399.179909520204
sI3800
F29125.62490501718
sI1300
F35586.27631405937
sI2200
F29622.676260137694
sI900
F30553.22238695806
sI3100
F23924.441276174042
sI3304
F22408.49907264321
sI4000
F22551.135729325928
sI4400
F19878.069728623013
sI1700
F21298.3408841786
sI2600
F45769.75967952017
sI1500
F30607.409116235536
sI3500
F38554.81117554594
sI1200
F22814.277458330427
sI200
F25063.088746887246
sI2100
F26547.96311391089
sI3000
F25614.175647804575
sI3700
F30872.684867366785
sI700
F23524.932729749173
sI4800
F26690.022397385685
sI800
F31313.025900760527
sI2500
F33364.99871912501
sI3400
F45183.95869175286
sI1100
F31397.760935001148
sI4300
F27278.513991453543
sI2000
F27967.546583535346
sI1400
F49812.12609678254
sI2900
F21325.197670445337
sI600
F20122.446036295303
sI4700
F27001.940484627088
sI2400
F35957.13151791981
sI400
F31802.326800822844
sI100
F22483.702775644997
sI3301
F17752.122497970213
sI3302
F30793.149958003214
sI3303
F16343.257850093389
sI4200
F26180.985195668323
sI3900
F33881.29815712394
sI1900
F18438.911393684884
sI2800
F35185.14156607876
sI1000
F31653.944217777665
sI500
F34236.35669714979
sI3305
F26597.862649434643
sI4600
F28721.812534964396
sI4500
F20933.541085672914
sI2300
F20697.923524033155
sa.