(lp0
F0.25389463329825684
aF0.25389463329825684
aF0.25389463329825684
aF0.25389463329825684
aF0.25389463329825684
aF0.25389463329825684
aF0.25389463329825684
aF0.25389463329825684
aF0.25389463329825684
aF0.25389463329825684
aF0.25389463329825684
aF0.25389463329825684
aF0.25389463329825684
aF0.25389463329825684
aF0.25389463329825684
aF0.2531014500094772
aF0.2523007339917254
aF0.22352063575578926
aF0.1854788103190217
aF0.13289653036947954
aF0.09934548591820862
aF0.08069408950385297
aF0.05983019496859457
aF0.0440260312158903
aF0.035910814776567164
aF0.020347412401388244
aF0.010926305073889371
aF0.004213712181125367
aF0.0010888960058562473
aF0.00024110451702298707
aF0.0001555565722651782
aF0.0
aF0.0
aF0.0
aF0.0
aF0.0
aF0.0
aF0.0
aF0.0
aF0.0
aF0.0
aF0.0
aF0.0
aF0.0
aF0.0
aF0.0
aF0.0
aF0.0
aF0.0
aF0.0
a.