(lp0
F0.0
aF0.0
aF0.0
aF0.0
aF0.0
aF0.0
aF0.0
aF0.0
aF0.0
aF0.0
aF0.0
aF0.0
aF0.0
aF0.0
aF0.0
aF0.0
aF3.9706141870208305e-05
aF0.00020713370675625332
aF0.0006668834436826384
aF6.393832639429016e-05
aF0.0
aF0.0010405868665808273
aF0.0
aF0.0011309142543415316
aF0.004701411447133642
aF0.0021564438329662286
aF0.004509686337819201
aF0.0003737279328623063
aF0.0013016996843116622
aF0.0026745763044202903
aF6.977986784227348e-05
aF0.0
aF0.003906496120889679
aF0.0016754276171739686
aF0.0035327681880273727
aF0.0
aF0.002300848371557984
aF0.0012319198164693888
aF0.0008172357335668861
aF0.0003737279328623063
aF0.0004435078007045798
aF0.001979375682194001
aF0.002300848371557984
aF0.004764688004496761
aF0.0016754276171739686
aF0.0026047964365780167
aF0.0012319198164693888
aF0.0022310685037157107
aF0.007994905195458793
aF0.00013955973568454696
a.