(lp0
F0.0
aF0.0
aF0.0
aF0.0
aF0.0
aF0.0
aF0.0
aF0.0
aF0.0
aF0.0
aF0.0
aF0.0
aF0.0
aF0.0
aF0.0
aF0.0
aF0.0
aF0.0
aF0.0
aF0.0
aF0.0
aF0.0
aF0.0
aF0.0
aF0.0
aF0.0
aF0.0
aF0.0
aF0.0
aF0.0
aF0.0
aF0.0
aF0.0
aF0.0
aF0.0
aF0.0
aF0.0
aF0.0
aF2.038412015764809e-05
aF0.0
aF0.0008929551827136125
aF0.0015417012529493656
aF0.0002687926064876241
aF0.0008990173138386526
aF9.338296328734175e-06
aF0.001776098209792221
aF0.001705583043026425
aF0.0
aF0.0016347492467271027
aF4.7549330387780314e-05
a.